
Tester_ZB_V2.1_Test_HTR.elf:     file format elf32-avr

Sections:
Idx Name          Size      VMA       LMA       File off  Algn
  0 .data         0000034a  00800100  00003ed0  00003f64  2**0
                  CONTENTS, ALLOC, LOAD, DATA
  1 .text         00003ed0  00000000  00000000  00000094  2**1
                  CONTENTS, ALLOC, LOAD, READONLY, CODE
  2 .bss          000004bd  0080044a  0080044a  000042ae  2**0
                  ALLOC
  3 .comment      00000030  00000000  00000000  000042ae  2**0
                  CONTENTS, READONLY

Disassembly of section .text:

00000000 <__vectors>:
       0:	0c 94 e9 02 	jmp	0x5d2	; 0x5d2 <__ctors_end>
       4:	0c 94 08 03 	jmp	0x610	; 0x610 <__bad_interrupt>
       8:	0c 94 08 03 	jmp	0x610	; 0x610 <__bad_interrupt>
       c:	0c 94 08 03 	jmp	0x610	; 0x610 <__bad_interrupt>
      10:	0c 94 08 03 	jmp	0x610	; 0x610 <__bad_interrupt>
      14:	0c 94 08 03 	jmp	0x610	; 0x610 <__bad_interrupt>
      18:	0c 94 08 03 	jmp	0x610	; 0x610 <__bad_interrupt>
      1c:	0c 94 08 03 	jmp	0x610	; 0x610 <__bad_interrupt>
      20:	0c 94 08 03 	jmp	0x610	; 0x610 <__bad_interrupt>
      24:	0c 94 08 03 	jmp	0x610	; 0x610 <__bad_interrupt>
      28:	0c 94 08 03 	jmp	0x610	; 0x610 <__bad_interrupt>
      2c:	0c 94 08 03 	jmp	0x610	; 0x610 <__bad_interrupt>
      30:	0c 94 08 03 	jmp	0x610	; 0x610 <__bad_interrupt>
      34:	0c 94 08 03 	jmp	0x610	; 0x610 <__bad_interrupt>
      38:	0c 94 08 03 	jmp	0x610	; 0x610 <__bad_interrupt>
      3c:	0c 94 fb 0b 	jmp	0x17f6	; 0x17f6 <__vector_15>
      40:	0c 94 08 03 	jmp	0x610	; 0x610 <__bad_interrupt>
      44:	0c 94 08 03 	jmp	0x610	; 0x610 <__bad_interrupt>
      48:	0c 94 08 03 	jmp	0x610	; 0x610 <__bad_interrupt>
      4c:	0c 94 08 03 	jmp	0x610	; 0x610 <__bad_interrupt>
      50:	0c 94 08 03 	jmp	0x610	; 0x610 <__bad_interrupt>
      54:	0c 94 08 03 	jmp	0x610	; 0x610 <__bad_interrupt>
      58:	0c 94 08 03 	jmp	0x610	; 0x610 <__bad_interrupt>
      5c:	0c 94 08 03 	jmp	0x610	; 0x610 <__bad_interrupt>
      60:	0c 94 08 03 	jmp	0x610	; 0x610 <__bad_interrupt>
      64:	0c 94 08 03 	jmp	0x610	; 0x610 <__bad_interrupt>
      68:	0c 94 08 03 	jmp	0x610	; 0x610 <__bad_interrupt>
      6c:	0c 94 08 03 	jmp	0x610	; 0x610 <__bad_interrupt>
      70:	0c 94 08 03 	jmp	0x610	; 0x610 <__bad_interrupt>
      74:	0c 94 08 03 	jmp	0x610	; 0x610 <__bad_interrupt>
      78:	0c 94 08 03 	jmp	0x610	; 0x610 <__bad_interrupt>
      7c:	0c 94 08 03 	jmp	0x610	; 0x610 <__bad_interrupt>
      80:	0c 94 08 03 	jmp	0x610	; 0x610 <__bad_interrupt>
      84:	0c 94 08 03 	jmp	0x610	; 0x610 <__bad_interrupt>
      88:	0c 94 08 03 	jmp	0x610	; 0x610 <__bad_interrupt>
      8c:	d6 0d       	add	r29, r6
      8e:	e1 0d       	add	r30, r1
      90:	e5 0d       	add	r30, r5
      92:	f2 0d       	add	r31, r2
      94:	f9 0d       	add	r31, r9
      96:	03 0e       	add	r0, r19
      98:	06 0e       	add	r0, r22
      9a:	14 0e       	add	r1, r20
      9c:	1f 0e       	add	r1, r31
      9e:	22 0e       	add	r2, r18
      a0:	2f 0e       	add	r2, r31
      a2:	36 0e       	add	r3, r22
      a4:	40 0e       	add	r4, r16
      a6:	43 0e       	add	r4, r19
      a8:	51 0e       	add	r5, r17
      aa:	5c 0e       	add	r5, r28
      ac:	5f 0e       	add	r5, r31
      ae:	66 0e       	add	r6, r22
      b0:	72 0e       	add	r7, r18
      b2:	7c 0e       	add	r7, r28
      b4:	7f 0e       	add	r7, r31
      b6:	8e 0e       	add	r8, r30
      b8:	99 0e       	add	r9, r25
      ba:	9d 0e       	add	r9, r29
      bc:	a4 0e       	add	r10, r20
      be:	b0 0e       	add	r11, r16
      c0:	ba 0e       	add	r11, r26
      c2:	bd 0e       	add	r11, r29
      c4:	cb 0e       	add	r12, r27
      c6:	d6 0e       	add	r13, r22
      c8:	d9 0e       	add	r13, r25
      ca:	e0 0e       	add	r14, r16
      cc:	ec 0e       	add	r14, r28
      ce:	f6 0e       	add	r15, r22
      d0:	f9 0e       	add	r15, r25

000000d2 <__trampolines_end>:
      d2:	00 00       	nop
      d4:	00 00       	nop
      d6:	00 3e       	cpi	r16, 0xE0	; 224
      d8:	5b 4f       	sbci	r21, 0xFB	; 251
      da:	5b 3e       	cpi	r21, 0xEB	; 235
      dc:	3e 6b       	ori	r19, 0xBE	; 190
      de:	4f 6b       	ori	r20, 0xBF	; 191
      e0:	3e 1c       	adc	r3, r14
      e2:	3e 7c       	andi	r19, 0xCE	; 206
      e4:	3e 1c       	adc	r3, r14
      e6:	18 3c       	cpi	r17, 0xC8	; 200
      e8:	7e 3c       	cpi	r23, 0xCE	; 206
      ea:	18 1c       	adc	r1, r8
      ec:	57 7d       	andi	r21, 0xD7	; 215
      ee:	57 1c       	adc	r5, r7
      f0:	1c 5e       	subi	r17, 0xEC	; 236
      f2:	7f 5e       	subi	r23, 0xEF	; 239
      f4:	1c 00       	.word	0x001c	; ????
      f6:	18 3c       	cpi	r17, 0xC8	; 200
      f8:	18 00       	.word	0x0018	; ????
      fa:	ff e7       	ldi	r31, 0x7F	; 127
      fc:	c3 e7       	ldi	r28, 0x73	; 115
      fe:	ff 00       	.word	0x00ff	; ????
     100:	18 24       	eor	r1, r8
     102:	18 00       	.word	0x0018	; ????
     104:	ff e7       	ldi	r31, 0x7F	; 127
     106:	db e7       	ldi	r29, 0x7B	; 123
     108:	ff 30       	cpi	r31, 0x0F	; 15
     10a:	48 3a       	cpi	r20, 0xA8	; 168
     10c:	06 0e       	add	r0, r22
     10e:	26 29       	or	r18, r6
     110:	79 29       	or	r23, r9
     112:	26 40       	sbci	r18, 0x06	; 6
     114:	7f 05       	cpc	r23, r15
     116:	05 07       	cpc	r16, r21
     118:	40 7f       	andi	r20, 0xF0	; 240
     11a:	05 25       	eor	r16, r5
     11c:	3f 5a       	subi	r19, 0xAF	; 175
     11e:	3c e7       	ldi	r19, 0x7C	; 124
     120:	3c 5a       	subi	r19, 0xAC	; 172
     122:	7f 3e       	cpi	r23, 0xEF	; 239
     124:	1c 1c       	adc	r1, r12
     126:	08 08       	sbc	r0, r8
     128:	1c 1c       	adc	r1, r12
     12a:	3e 7f       	andi	r19, 0xFE	; 254
     12c:	14 22       	and	r1, r20
     12e:	7f 22       	and	r7, r31
     130:	14 5f       	subi	r17, 0xF4	; 244
     132:	5f 00       	.word	0x005f	; ????
     134:	5f 5f       	subi	r21, 0xFF	; 255
     136:	06 09       	sbc	r16, r6
     138:	7f 01       	movw	r14, r30
     13a:	7f 00       	.word	0x007f	; ????
     13c:	66 89       	ldd	r22, Z+22	; 0x16
     13e:	95 6a       	ori	r25, 0xA5	; 165
     140:	60 60       	ori	r22, 0x00	; 0
     142:	60 60       	ori	r22, 0x00	; 0
     144:	60 94       	com	r6
     146:	a2 ff       	sbrs	r26, 2
     148:	a2 94       	swap	r10
     14a:	08 04       	cpc	r0, r8
     14c:	7e 04       	cpc	r7, r14
     14e:	08 10       	cpse	r0, r8
     150:	20 7e       	andi	r18, 0xE0	; 224
     152:	20 10       	cpse	r2, r0
     154:	08 08       	sbc	r0, r8
     156:	2a 1c       	adc	r2, r10
     158:	08 08       	sbc	r0, r8
     15a:	1c 2a       	or	r1, r28
     15c:	08 08       	sbc	r0, r8
     15e:	1e 10       	cpse	r1, r14
     160:	10 10       	cpse	r1, r0
     162:	10 0c       	add	r1, r0
     164:	1e 0c       	add	r1, r14
     166:	1e 0c       	add	r1, r14
     168:	30 38       	cpi	r19, 0x80	; 128
     16a:	3e 38       	cpi	r19, 0x8E	; 142
     16c:	30 06       	cpc	r3, r16
     16e:	0e 3e       	cpi	r16, 0xEE	; 238
     170:	0e 06       	cpc	r0, r30
     172:	00 00       	nop
     174:	00 00       	nop
     176:	00 00       	nop
     178:	00 5f       	subi	r16, 0xF0	; 240
     17a:	00 00       	nop
     17c:	00 07       	cpc	r16, r16
     17e:	00 07       	cpc	r16, r16
     180:	00 14       	cp	r0, r0
     182:	7f 14       	cp	r7, r15
     184:	7f 14       	cp	r7, r15
     186:	24 2a       	or	r2, r20
     188:	7f 2a       	or	r7, r31
     18a:	12 23       	and	r17, r18
     18c:	13 08       	sbc	r1, r3
     18e:	64 62       	ori	r22, 0x24	; 36
     190:	36 49       	sbci	r19, 0x96	; 150
     192:	56 20       	and	r5, r6
     194:	50 00       	.word	0x0050	; ????
     196:	08 07       	cpc	r16, r24
     198:	03 00       	.word	0x0003	; ????
     19a:	00 1c       	adc	r0, r0
     19c:	22 41       	sbci	r18, 0x12	; 18
     19e:	00 00       	nop
     1a0:	41 22       	and	r4, r17
     1a2:	1c 00       	.word	0x001c	; ????
     1a4:	2a 1c       	adc	r2, r10
     1a6:	7f 1c       	adc	r7, r15
     1a8:	2a 08       	sbc	r2, r10
     1aa:	08 3e       	cpi	r16, 0xE8	; 232
     1ac:	08 08       	sbc	r0, r8
     1ae:	00 80       	ld	r0, Z
     1b0:	70 30       	cpi	r23, 0x00	; 0
     1b2:	00 08       	sbc	r0, r0
     1b4:	08 08       	sbc	r0, r8
     1b6:	08 08       	sbc	r0, r8
     1b8:	00 00       	nop
     1ba:	60 60       	ori	r22, 0x00	; 0
     1bc:	00 20       	and	r0, r0
     1be:	10 08       	sbc	r1, r0
     1c0:	04 02       	muls	r16, r20
     1c2:	3e 51       	subi	r19, 0x1E	; 30
     1c4:	49 45       	sbci	r20, 0x59	; 89
     1c6:	3e 00       	.word	0x003e	; ????
     1c8:	42 7f       	andi	r20, 0xF2	; 242
     1ca:	40 00       	.word	0x0040	; ????
     1cc:	72 49       	sbci	r23, 0x92	; 146
     1ce:	49 49       	sbci	r20, 0x99	; 153
     1d0:	46 21       	and	r20, r6
     1d2:	41 49       	sbci	r20, 0x91	; 145
     1d4:	4d 33       	cpi	r20, 0x3D	; 61
     1d6:	18 14       	cp	r1, r8
     1d8:	12 7f       	andi	r17, 0xF2	; 242
     1da:	10 27       	eor	r17, r16
     1dc:	45 45       	sbci	r20, 0x55	; 85
     1de:	45 39       	cpi	r20, 0x95	; 149
     1e0:	3c 4a       	sbci	r19, 0xAC	; 172
     1e2:	49 49       	sbci	r20, 0x99	; 153
     1e4:	31 41       	sbci	r19, 0x11	; 17
     1e6:	21 11       	cpse	r18, r1
     1e8:	09 07       	cpc	r16, r25
     1ea:	36 49       	sbci	r19, 0x96	; 150
     1ec:	49 49       	sbci	r20, 0x99	; 153
     1ee:	36 46       	sbci	r19, 0x66	; 102
     1f0:	49 49       	sbci	r20, 0x99	; 153
     1f2:	29 1e       	adc	r2, r25
     1f4:	00 00       	nop
     1f6:	14 00       	.word	0x0014	; ????
     1f8:	00 00       	nop
     1fa:	40 34       	cpi	r20, 0x40	; 64
     1fc:	00 00       	nop
     1fe:	00 08       	sbc	r0, r0
     200:	14 22       	and	r1, r20
     202:	41 14       	cp	r4, r1
     204:	14 14       	cp	r1, r4
     206:	14 14       	cp	r1, r4
     208:	00 41       	sbci	r16, 0x10	; 16
     20a:	22 14       	cp	r2, r2
     20c:	08 02       	muls	r16, r24
     20e:	01 59       	subi	r16, 0x91	; 145
     210:	09 06       	cpc	r0, r25
     212:	3e 41       	sbci	r19, 0x1E	; 30
     214:	5d 59       	subi	r21, 0x9D	; 157
     216:	4e 7c       	andi	r20, 0xCE	; 206
     218:	12 11       	cpse	r17, r2
     21a:	12 7c       	andi	r17, 0xC2	; 194
     21c:	7f 49       	sbci	r23, 0x9F	; 159
     21e:	49 49       	sbci	r20, 0x99	; 153
     220:	36 3e       	cpi	r19, 0xE6	; 230
     222:	41 41       	sbci	r20, 0x11	; 17
     224:	41 22       	and	r4, r17
     226:	7f 41       	sbci	r23, 0x1F	; 31
     228:	41 41       	sbci	r20, 0x11	; 17
     22a:	3e 7f       	andi	r19, 0xFE	; 254
     22c:	49 49       	sbci	r20, 0x99	; 153
     22e:	49 41       	sbci	r20, 0x19	; 25
     230:	7f 09       	sbc	r23, r15
     232:	09 09       	sbc	r16, r9
     234:	01 3e       	cpi	r16, 0xE1	; 225
     236:	41 41       	sbci	r20, 0x11	; 17
     238:	51 73       	andi	r21, 0x31	; 49
     23a:	7f 08       	sbc	r7, r15
     23c:	08 08       	sbc	r0, r8
     23e:	7f 00       	.word	0x007f	; ????
     240:	41 7f       	andi	r20, 0xF1	; 241
     242:	41 00       	.word	0x0041	; ????
     244:	20 40       	sbci	r18, 0x00	; 0
     246:	41 3f       	cpi	r20, 0xF1	; 241
     248:	01 7f       	andi	r16, 0xF1	; 241
     24a:	08 14       	cp	r0, r8
     24c:	22 41       	sbci	r18, 0x12	; 18
     24e:	7f 40       	sbci	r23, 0x0F	; 15
     250:	40 40       	sbci	r20, 0x00	; 0
     252:	40 7f       	andi	r20, 0xF0	; 240
     254:	02 1c       	adc	r0, r2
     256:	02 7f       	andi	r16, 0xF2	; 242
     258:	7f 04       	cpc	r7, r15
     25a:	08 10       	cpse	r0, r8
     25c:	7f 3e       	cpi	r23, 0xEF	; 239
     25e:	41 41       	sbci	r20, 0x11	; 17
     260:	41 3e       	cpi	r20, 0xE1	; 225
     262:	7f 09       	sbc	r23, r15
     264:	09 09       	sbc	r16, r9
     266:	06 3e       	cpi	r16, 0xE6	; 230
     268:	41 51       	subi	r20, 0x11	; 17
     26a:	21 5e       	subi	r18, 0xE1	; 225
     26c:	7f 09       	sbc	r23, r15
     26e:	19 29       	or	r17, r9
     270:	46 26       	eor	r4, r22
     272:	49 49       	sbci	r20, 0x99	; 153
     274:	49 32       	cpi	r20, 0x29	; 41
     276:	03 01       	movw	r0, r6
     278:	7f 01       	movw	r14, r30
     27a:	03 3f       	cpi	r16, 0xF3	; 243
     27c:	40 40       	sbci	r20, 0x00	; 0
     27e:	40 3f       	cpi	r20, 0xF0	; 240
     280:	1f 20       	and	r1, r15
     282:	40 20       	and	r4, r0
     284:	1f 3f       	cpi	r17, 0xFF	; 255
     286:	40 38       	cpi	r20, 0x80	; 128
     288:	40 3f       	cpi	r20, 0xF0	; 240
     28a:	63 14       	cp	r6, r3
     28c:	08 14       	cp	r0, r8
     28e:	63 03       	mulsu	r22, r19
     290:	04 78       	andi	r16, 0x84	; 132
     292:	04 03       	mulsu	r16, r20
     294:	61 59       	subi	r22, 0x91	; 145
     296:	49 4d       	sbci	r20, 0xD9	; 217
     298:	43 00       	.word	0x0043	; ????
     29a:	7f 41       	sbci	r23, 0x1F	; 31
     29c:	41 41       	sbci	r20, 0x11	; 17
     29e:	02 04       	cpc	r0, r2
     2a0:	08 10       	cpse	r0, r8
     2a2:	20 00       	.word	0x0020	; ????
     2a4:	41 41       	sbci	r20, 0x11	; 17
     2a6:	41 7f       	andi	r20, 0xF1	; 241
     2a8:	04 02       	muls	r16, r20
     2aa:	01 02       	muls	r16, r17
     2ac:	04 40       	sbci	r16, 0x04	; 4
     2ae:	40 40       	sbci	r20, 0x00	; 0
     2b0:	40 40       	sbci	r20, 0x00	; 0
     2b2:	00 03       	mulsu	r16, r16
     2b4:	07 08       	sbc	r0, r7
     2b6:	00 20       	and	r0, r0
     2b8:	54 54       	subi	r21, 0x44	; 68
     2ba:	78 40       	sbci	r23, 0x08	; 8
     2bc:	7f 28       	or	r7, r15
     2be:	44 44       	sbci	r20, 0x44	; 68
     2c0:	38 38       	cpi	r19, 0x88	; 136
     2c2:	44 44       	sbci	r20, 0x44	; 68
     2c4:	44 28       	or	r4, r4
     2c6:	38 44       	sbci	r19, 0x48	; 72
     2c8:	44 28       	or	r4, r4
     2ca:	7f 38       	cpi	r23, 0x8F	; 143
     2cc:	54 54       	subi	r21, 0x44	; 68
     2ce:	54 18       	sub	r5, r4
     2d0:	00 08       	sbc	r0, r0
     2d2:	7e 09       	sbc	r23, r14
     2d4:	02 18       	sub	r0, r2
     2d6:	a4 a4       	ldd	r10, Z+44	; 0x2c
     2d8:	9c 78       	andi	r25, 0x8C	; 140
     2da:	7f 08       	sbc	r7, r15
     2dc:	04 04       	cpc	r0, r4
     2de:	78 00       	.word	0x0078	; ????
     2e0:	44 7d       	andi	r20, 0xD4	; 212
     2e2:	40 00       	.word	0x0040	; ????
     2e4:	20 40       	sbci	r18, 0x00	; 0
     2e6:	40 3d       	cpi	r20, 0xD0	; 208
     2e8:	00 7f       	andi	r16, 0xF0	; 240
     2ea:	10 28       	or	r1, r0
     2ec:	44 00       	.word	0x0044	; ????
     2ee:	00 41       	sbci	r16, 0x10	; 16
     2f0:	7f 40       	sbci	r23, 0x0F	; 15
     2f2:	00 7c       	andi	r16, 0xC0	; 192
     2f4:	04 78       	andi	r16, 0x84	; 132
     2f6:	04 78       	andi	r16, 0x84	; 132
     2f8:	7c 08       	sbc	r7, r12
     2fa:	04 04       	cpc	r0, r4
     2fc:	78 38       	cpi	r23, 0x88	; 136
     2fe:	44 44       	sbci	r20, 0x44	; 68
     300:	44 38       	cpi	r20, 0x84	; 132
     302:	fc 18       	sub	r15, r12
     304:	24 24       	eor	r2, r4
     306:	18 18       	sub	r1, r8
     308:	24 24       	eor	r2, r4
     30a:	18 fc       	.word	0xfc18	; ????
     30c:	7c 08       	sbc	r7, r12
     30e:	04 04       	cpc	r0, r4
     310:	08 48       	sbci	r16, 0x88	; 136
     312:	54 54       	subi	r21, 0x44	; 68
     314:	54 24       	eor	r5, r4
     316:	04 04       	cpc	r0, r4
     318:	3f 44       	sbci	r19, 0x4F	; 79
     31a:	24 3c       	cpi	r18, 0xC4	; 196
     31c:	40 40       	sbci	r20, 0x00	; 0
     31e:	20 7c       	andi	r18, 0xC0	; 192
     320:	1c 20       	and	r1, r12
     322:	40 20       	and	r4, r0
     324:	1c 3c       	cpi	r17, 0xCC	; 204
     326:	40 30       	cpi	r20, 0x00	; 0
     328:	40 3c       	cpi	r20, 0xC0	; 192
     32a:	44 28       	or	r4, r4
     32c:	10 28       	or	r1, r0
     32e:	44 4c       	sbci	r20, 0xC4	; 196
     330:	90 90 90 7c 	lds	r9, 0x7C90
     334:	44 64       	ori	r20, 0x44	; 68
     336:	54 4c       	sbci	r21, 0xC4	; 196
     338:	44 00       	.word	0x0044	; ????
     33a:	08 36       	cpi	r16, 0x68	; 104
     33c:	41 00       	.word	0x0041	; ????
     33e:	00 00       	nop
     340:	77 00       	.word	0x0077	; ????
     342:	00 00       	nop
     344:	41 36       	cpi	r20, 0x61	; 97
     346:	08 00       	.word	0x0008	; ????
     348:	02 01       	movw	r0, r4
     34a:	02 04       	cpc	r0, r2
     34c:	02 3c       	cpi	r16, 0xC2	; 194
     34e:	26 23       	and	r18, r22
     350:	26 3c       	cpi	r18, 0xC6	; 198
     352:	1e a1       	ldd	r17, Y+38	; 0x26
     354:	a1 61       	ori	r26, 0x11	; 17
     356:	12 3a       	cpi	r17, 0xA2	; 162
     358:	40 40       	sbci	r20, 0x00	; 0
     35a:	20 7a       	andi	r18, 0xA0	; 160
     35c:	38 54       	subi	r19, 0x48	; 72
     35e:	54 55       	subi	r21, 0x54	; 84
     360:	59 21       	and	r21, r9
     362:	55 55       	subi	r21, 0x55	; 85
     364:	79 41       	sbci	r23, 0x19	; 25
     366:	22 54       	subi	r18, 0x42	; 66
     368:	54 78       	andi	r21, 0x84	; 132
     36a:	42 21       	and	r20, r2
     36c:	55 54       	subi	r21, 0x45	; 69
     36e:	78 40       	sbci	r23, 0x08	; 8
     370:	20 54       	subi	r18, 0x40	; 64
     372:	55 79       	andi	r21, 0x95	; 149
     374:	40 0c       	add	r4, r0
     376:	1e 52       	subi	r17, 0x2E	; 46
     378:	72 12       	cpse	r7, r18
     37a:	39 55       	subi	r19, 0x59	; 89
     37c:	55 55       	subi	r21, 0x55	; 85
     37e:	59 39       	cpi	r21, 0x99	; 153
     380:	54 54       	subi	r21, 0x44	; 68
     382:	54 59       	subi	r21, 0x94	; 148
     384:	39 55       	subi	r19, 0x59	; 89
     386:	54 54       	subi	r21, 0x44	; 68
     388:	58 00       	.word	0x0058	; ????
     38a:	00 45       	sbci	r16, 0x50	; 80
     38c:	7c 41       	sbci	r23, 0x1C	; 28
     38e:	00 02       	muls	r16, r16
     390:	45 7d       	andi	r20, 0xD5	; 213
     392:	42 00       	.word	0x0042	; ????
     394:	01 45       	sbci	r16, 0x51	; 81
     396:	7c 40       	sbci	r23, 0x0C	; 12
     398:	7d 12       	cpse	r7, r29
     39a:	11 12       	cpse	r1, r17
     39c:	7d f0       	brhs	.+30     	; 0x3bc <__trampolines_end+0x2ea>
     39e:	28 25       	eor	r18, r8
     3a0:	28 f0       	brcs	.+10     	; 0x3ac <__trampolines_end+0x2da>
     3a2:	7c 54       	subi	r23, 0x4C	; 76
     3a4:	55 45       	sbci	r21, 0x55	; 85
     3a6:	00 20       	and	r0, r0
     3a8:	54 54       	subi	r21, 0x44	; 68
     3aa:	7c 54       	subi	r23, 0x4C	; 76
     3ac:	7c 0a       	sbc	r7, r28
     3ae:	09 7f       	andi	r16, 0xF9	; 249
     3b0:	49 32       	cpi	r20, 0x29	; 41
     3b2:	49 49       	sbci	r20, 0x99	; 153
     3b4:	49 32       	cpi	r20, 0x29	; 41
     3b6:	3a 44       	sbci	r19, 0x4A	; 74
     3b8:	44 44       	sbci	r20, 0x44	; 68
     3ba:	3a 32       	cpi	r19, 0x2A	; 42
     3bc:	4a 48       	sbci	r20, 0x8A	; 138
     3be:	48 30       	cpi	r20, 0x08	; 8
     3c0:	3a 41       	sbci	r19, 0x1A	; 26
     3c2:	41 21       	and	r20, r1
     3c4:	7a 3a       	cpi	r23, 0xAA	; 170
     3c6:	42 40       	sbci	r20, 0x02	; 2
     3c8:	20 78       	andi	r18, 0x80	; 128
     3ca:	00 9d       	mul	r16, r0
     3cc:	a0 a0       	ldd	r10, Z+32	; 0x20
     3ce:	7d 3d       	cpi	r23, 0xDD	; 221
     3d0:	42 42       	sbci	r20, 0x22	; 34
     3d2:	42 3d       	cpi	r20, 0xD2	; 210
     3d4:	3d 40       	sbci	r19, 0x0D	; 13
     3d6:	40 40       	sbci	r20, 0x00	; 0
     3d8:	3d 3c       	cpi	r19, 0xCD	; 205
     3da:	24 ff       	sbrs	r18, 4
     3dc:	24 24       	eor	r2, r4
     3de:	48 7e       	andi	r20, 0xE8	; 232
     3e0:	49 43       	sbci	r20, 0x39	; 57
     3e2:	66 2b       	or	r22, r22
     3e4:	2f fc       	.word	0xfc2f	; ????
     3e6:	2f 2b       	or	r18, r31
     3e8:	ff 09       	sbc	r31, r15
     3ea:	29 f6       	brne	.-118    	; 0x376 <__trampolines_end+0x2a4>
     3ec:	20 c0       	rjmp	.+64     	; 0x42e <__trampolines_end+0x35c>
     3ee:	88 7e       	andi	r24, 0xE8	; 232
     3f0:	09 03       	fmul	r16, r17
     3f2:	20 54       	subi	r18, 0x40	; 64
     3f4:	54 79       	andi	r21, 0x94	; 148
     3f6:	41 00       	.word	0x0041	; ????
     3f8:	00 44       	sbci	r16, 0x40	; 64
     3fa:	7d 41       	sbci	r23, 0x1D	; 29
     3fc:	30 48       	sbci	r19, 0x80	; 128
     3fe:	48 4a       	sbci	r20, 0xA8	; 168
     400:	32 38       	cpi	r19, 0x82	; 130
     402:	40 40       	sbci	r20, 0x00	; 0
     404:	22 7a       	andi	r18, 0xA2	; 162
     406:	00 7a       	andi	r16, 0xA0	; 160
     408:	0a 0a       	sbc	r0, r26
     40a:	72 7d       	andi	r23, 0xD2	; 210
     40c:	0d 19       	sub	r16, r13
     40e:	31 7d       	andi	r19, 0xD1	; 209
     410:	26 29       	or	r18, r6
     412:	29 2f       	mov	r18, r25
     414:	28 26       	eor	r2, r24
     416:	29 29       	or	r18, r9
     418:	29 26       	eor	r2, r25
     41a:	30 48       	sbci	r19, 0x80	; 128
     41c:	4d 40       	sbci	r20, 0x0D	; 13
     41e:	20 38       	cpi	r18, 0x80	; 128
     420:	08 08       	sbc	r0, r8
     422:	08 08       	sbc	r0, r8
     424:	08 08       	sbc	r0, r8
     426:	08 08       	sbc	r0, r8
     428:	38 2f       	mov	r19, r24
     42a:	10 c8       	rjmp	.-4064   	; 0xfffff44c <__eeprom_end+0xff7ef44c>
     42c:	ac ba       	out	0x1c, r10	; 28
     42e:	2f 10       	cpse	r2, r15
     430:	28 34       	cpi	r18, 0x48	; 72
     432:	fa 00       	.word	0x00fa	; ????
     434:	00 7b       	andi	r16, 0xB0	; 176
     436:	00 00       	nop
     438:	08 14       	cp	r0, r8
     43a:	2a 14       	cp	r2, r10
     43c:	22 22       	and	r2, r18
     43e:	14 2a       	or	r1, r20
     440:	14 08       	sbc	r1, r4
     442:	55 00       	.word	0x0055	; ????
     444:	55 00       	.word	0x0055	; ????
     446:	55 aa       	std	Z+53, r5	; 0x35
     448:	55 aa       	std	Z+53, r5	; 0x35
     44a:	55 aa       	std	Z+53, r5	; 0x35
     44c:	ff 55       	subi	r31, 0x5F	; 95
     44e:	ff 55       	subi	r31, 0x5F	; 95
     450:	ff 00       	.word	0x00ff	; ????
     452:	00 00       	nop
     454:	ff 00       	.word	0x00ff	; ????
     456:	10 10       	cpse	r1, r0
     458:	10 ff       	sbrs	r17, 0
     45a:	00 14       	cp	r0, r0
     45c:	14 14       	cp	r1, r4
     45e:	ff 00       	.word	0x00ff	; ????
     460:	10 10       	cpse	r1, r0
     462:	ff 00       	.word	0x00ff	; ????
     464:	ff 10       	cpse	r15, r15
     466:	10 f0       	brcs	.+4      	; 0x46c <__trampolines_end+0x39a>
     468:	10 f0       	brcs	.+4      	; 0x46e <__trampolines_end+0x39c>
     46a:	14 14       	cp	r1, r4
     46c:	14 fc       	sbrc	r1, 4
     46e:	00 14       	cp	r0, r0
     470:	14 f7       	brge	.-60     	; 0x436 <__trampolines_end+0x364>
     472:	00 ff       	sbrs	r16, 0
     474:	00 00       	nop
     476:	ff 00       	.word	0x00ff	; ????
     478:	ff 14       	cp	r15, r15
     47a:	14 f4       	brge	.+4      	; 0x480 <__trampolines_end+0x3ae>
     47c:	04 fc       	sbrc	r0, 4
     47e:	14 14       	cp	r1, r4
     480:	17 10       	cpse	r1, r7
     482:	1f 10       	cpse	r1, r15
     484:	10 1f       	adc	r17, r16
     486:	10 1f       	adc	r17, r16
     488:	14 14       	cp	r1, r4
     48a:	14 1f       	adc	r17, r20
     48c:	00 10       	cpse	r0, r0
     48e:	10 10       	cpse	r1, r0
     490:	f0 00       	.word	0x00f0	; ????
     492:	00 00       	nop
     494:	00 1f       	adc	r16, r16
     496:	10 10       	cpse	r1, r0
     498:	10 10       	cpse	r1, r0
     49a:	1f 10       	cpse	r1, r15
     49c:	10 10       	cpse	r1, r0
     49e:	10 f0       	brcs	.+4      	; 0x4a4 <__trampolines_end+0x3d2>
     4a0:	10 00       	.word	0x0010	; ????
     4a2:	00 00       	nop
     4a4:	ff 10       	cpse	r15, r15
     4a6:	10 10       	cpse	r1, r0
     4a8:	10 10       	cpse	r1, r0
     4aa:	10 10       	cpse	r1, r0
     4ac:	10 10       	cpse	r1, r0
     4ae:	ff 10       	cpse	r15, r15
     4b0:	00 00       	nop
     4b2:	00 ff       	sbrs	r16, 0
     4b4:	14 00       	.word	0x0014	; ????
     4b6:	00 ff       	sbrs	r16, 0
     4b8:	00 ff       	sbrs	r16, 0
     4ba:	00 00       	nop
     4bc:	1f 10       	cpse	r1, r15
     4be:	17 00       	.word	0x0017	; ????
     4c0:	00 fc       	sbrc	r0, 0
     4c2:	04 f4       	brge	.+0      	; 0x4c4 <__trampolines_end+0x3f2>
     4c4:	14 14       	cp	r1, r4
     4c6:	17 10       	cpse	r1, r7
     4c8:	17 14       	cp	r1, r7
     4ca:	14 f4       	brge	.+4      	; 0x4d0 <__trampolines_end+0x3fe>
     4cc:	04 f4       	brge	.+0      	; 0x4ce <__trampolines_end+0x3fc>
     4ce:	00 00       	nop
     4d0:	ff 00       	.word	0x00ff	; ????
     4d2:	f7 14       	cp	r15, r7
     4d4:	14 14       	cp	r1, r4
     4d6:	14 14       	cp	r1, r4
     4d8:	14 14       	cp	r1, r4
     4da:	f7 00       	.word	0x00f7	; ????
     4dc:	f7 14       	cp	r15, r7
     4de:	14 14       	cp	r1, r4
     4e0:	17 14       	cp	r1, r7
     4e2:	10 10       	cpse	r1, r0
     4e4:	1f 10       	cpse	r1, r15
     4e6:	1f 14       	cp	r1, r15
     4e8:	14 14       	cp	r1, r4
     4ea:	f4 14       	cp	r15, r4
     4ec:	10 10       	cpse	r1, r0
     4ee:	f0 10       	cpse	r15, r0
     4f0:	f0 00       	.word	0x00f0	; ????
     4f2:	00 1f       	adc	r16, r16
     4f4:	10 1f       	adc	r17, r16
     4f6:	00 00       	nop
     4f8:	00 1f       	adc	r16, r16
     4fa:	14 00       	.word	0x0014	; ????
     4fc:	00 00       	nop
     4fe:	fc 14       	cp	r15, r12
     500:	00 00       	nop
     502:	f0 10       	cpse	r15, r0
     504:	f0 10       	cpse	r15, r0
     506:	10 ff       	sbrs	r17, 0
     508:	10 ff       	sbrs	r17, 0
     50a:	14 14       	cp	r1, r4
     50c:	14 ff       	sbrs	r17, 4
     50e:	14 10       	cpse	r1, r4
     510:	10 10       	cpse	r1, r0
     512:	1f 00       	.word	0x001f	; ????
     514:	00 00       	nop
     516:	00 f0       	brcs	.+0      	; 0x518 <__trampolines_end+0x446>
     518:	10 ff       	sbrs	r17, 0
     51a:	ff ff       	.word	0xffff	; ????
     51c:	ff ff       	.word	0xffff	; ????
     51e:	f0 f0       	brcs	.+60     	; 0x55c <__trampolines_end+0x48a>
     520:	f0 f0       	brcs	.+60     	; 0x55e <__trampolines_end+0x48c>
     522:	f0 ff       	sbrs	r31, 0
     524:	ff ff       	.word	0xffff	; ????
     526:	00 00       	nop
     528:	00 00       	nop
     52a:	00 ff       	sbrs	r16, 0
     52c:	ff 0f       	add	r31, r31
     52e:	0f 0f       	add	r16, r31
     530:	0f 0f       	add	r16, r31
     532:	38 44       	sbci	r19, 0x48	; 72
     534:	44 38       	cpi	r20, 0x84	; 132
     536:	44 fc       	sbrc	r4, 4
     538:	4a 4a       	sbci	r20, 0xAA	; 170
     53a:	4a 34       	cpi	r20, 0x4A	; 74
     53c:	7e 02       	muls	r23, r30
     53e:	02 06       	cpc	r0, r18
     540:	06 02       	muls	r16, r22
     542:	7e 02       	muls	r23, r30
     544:	7e 02       	muls	r23, r30
     546:	63 55       	subi	r22, 0x53	; 83
     548:	49 41       	sbci	r20, 0x19	; 25
     54a:	63 38       	cpi	r22, 0x83	; 131
     54c:	44 44       	sbci	r20, 0x44	; 68
     54e:	3c 04       	cpc	r3, r12
     550:	40 7e       	andi	r20, 0xE0	; 224
     552:	20 1e       	adc	r2, r16
     554:	20 06       	cpc	r2, r16
     556:	02 7e       	andi	r16, 0xE2	; 226
     558:	02 02       	muls	r16, r18
     55a:	99 a5       	ldd	r25, Y+41	; 0x29
     55c:	e7 a5       	ldd	r30, Z+47	; 0x2f
     55e:	99 1c       	adc	r9, r9
     560:	2a 49       	sbci	r18, 0x9A	; 154
     562:	2a 1c       	adc	r2, r10
     564:	4c 72       	andi	r20, 0x2C	; 44
     566:	01 72       	andi	r16, 0x21	; 33
     568:	4c 30       	cpi	r20, 0x0C	; 12
     56a:	4a 4d       	sbci	r20, 0xDA	; 218
     56c:	4d 30       	cpi	r20, 0x0D	; 13
     56e:	30 48       	sbci	r19, 0x80	; 128
     570:	78 48       	sbci	r23, 0x88	; 136
     572:	30 bc       	out	0x20, r3	; 32
     574:	62 5a       	subi	r22, 0xA2	; 162
     576:	46 3d       	cpi	r20, 0xD6	; 214
     578:	3e 49       	sbci	r19, 0x9E	; 158
     57a:	49 49       	sbci	r20, 0x99	; 153
     57c:	00 7e       	andi	r16, 0xE0	; 224
     57e:	01 01       	movw	r0, r2
     580:	01 7e       	andi	r16, 0xE1	; 225
     582:	2a 2a       	or	r2, r26
     584:	2a 2a       	or	r2, r26
     586:	2a 44       	sbci	r18, 0x4A	; 74
     588:	44 5f       	subi	r20, 0xF4	; 244
     58a:	44 44       	sbci	r20, 0x44	; 68
     58c:	40 51       	subi	r20, 0x10	; 16
     58e:	4a 44       	sbci	r20, 0x4A	; 74
     590:	40 40       	sbci	r20, 0x00	; 0
     592:	44 4a       	sbci	r20, 0xA4	; 164
     594:	51 40       	sbci	r21, 0x01	; 1
     596:	00 00       	nop
     598:	ff 01       	movw	r30, r30
     59a:	03 e0       	ldi	r16, 0x03	; 3
     59c:	80 ff       	sbrs	r24, 0
     59e:	00 00       	nop
     5a0:	08 08       	sbc	r0, r8
     5a2:	6b 6b       	ori	r22, 0xBB	; 187
     5a4:	08 36       	cpi	r16, 0x68	; 104
     5a6:	12 36       	cpi	r17, 0x62	; 98
     5a8:	24 36       	cpi	r18, 0x64	; 100
     5aa:	06 0f       	add	r16, r22
     5ac:	09 0f       	add	r16, r25
     5ae:	06 00       	.word	0x0006	; ????
     5b0:	00 18       	sub	r0, r0
     5b2:	18 00       	.word	0x0018	; ????
     5b4:	00 00       	nop
     5b6:	10 10       	cpse	r1, r0
     5b8:	00 30       	cpi	r16, 0x00	; 0
     5ba:	40 ff       	sbrs	r20, 0
     5bc:	01 01       	movw	r0, r2
     5be:	00 1f       	adc	r16, r16
     5c0:	01 01       	movw	r0, r2
     5c2:	1e 00       	.word	0x001e	; ????
     5c4:	19 1d       	adc	r17, r9
     5c6:	17 12       	cpse	r1, r23
     5c8:	00 3c       	cpi	r16, 0xC0	; 192
     5ca:	3c 3c       	cpi	r19, 0xCC	; 204
     5cc:	3c 00       	.word	0x003c	; ????
     5ce:	00 00       	nop
	...

000005d2 <__ctors_end>:
     5d2:	11 24       	eor	r1, r1
     5d4:	1f be       	out	0x3f, r1	; 63
     5d6:	cf ef       	ldi	r28, 0xFF	; 255
     5d8:	d0 e1       	ldi	r29, 0x10	; 16
     5da:	de bf       	out	0x3e, r29	; 62
     5dc:	cd bf       	out	0x3d, r28	; 61

000005de <__do_copy_data>:
     5de:	14 e0       	ldi	r17, 0x04	; 4
     5e0:	a0 e0       	ldi	r26, 0x00	; 0
     5e2:	b1 e0       	ldi	r27, 0x01	; 1
     5e4:	e0 ed       	ldi	r30, 0xD0	; 208
     5e6:	fe e3       	ldi	r31, 0x3E	; 62
     5e8:	00 e0       	ldi	r16, 0x00	; 0
     5ea:	0b bf       	out	0x3b, r16	; 59
     5ec:	02 c0       	rjmp	.+4      	; 0x5f2 <__do_copy_data+0x14>
     5ee:	07 90       	elpm	r0, Z+
     5f0:	0d 92       	st	X+, r0
     5f2:	aa 34       	cpi	r26, 0x4A	; 74
     5f4:	b1 07       	cpc	r27, r17
     5f6:	d9 f7       	brne	.-10     	; 0x5ee <__do_copy_data+0x10>

000005f8 <__do_clear_bss>:
     5f8:	29 e0       	ldi	r18, 0x09	; 9
     5fa:	aa e4       	ldi	r26, 0x4A	; 74
     5fc:	b4 e0       	ldi	r27, 0x04	; 4
     5fe:	01 c0       	rjmp	.+2      	; 0x602 <.do_clear_bss_start>

00000600 <.do_clear_bss_loop>:
     600:	1d 92       	st	X+, r1

00000602 <.do_clear_bss_start>:
     602:	a7 30       	cpi	r26, 0x07	; 7
     604:	b2 07       	cpc	r27, r18
     606:	e1 f7       	brne	.-8      	; 0x600 <.do_clear_bss_loop>
     608:	0e 94 96 12 	call	0x252c	; 0x252c <main>
     60c:	0c 94 66 1f 	jmp	0x3ecc	; 0x3ecc <_exit>

00000610 <__bad_interrupt>:
     610:	0c 94 00 00 	jmp	0	; 0x0 <__vectors>

00000614 <_swap_int16_t>:
     614:	08 95       	ret

00000616 <writeLine>:
     616:	3f 92       	push	r3
     618:	4f 92       	push	r4
     61a:	5f 92       	push	r5
     61c:	6f 92       	push	r6
     61e:	7f 92       	push	r7
     620:	8f 92       	push	r8
     622:	9f 92       	push	r9
     624:	af 92       	push	r10
     626:	bf 92       	push	r11
     628:	cf 92       	push	r12
     62a:	df 92       	push	r13
     62c:	ef 92       	push	r14
     62e:	ff 92       	push	r15
     630:	0f 93       	push	r16
     632:	1f 93       	push	r17
     634:	cf 93       	push	r28
     636:	df 93       	push	r29
     638:	ec 01       	movw	r28, r24
     63a:	7b 01       	movw	r14, r22
     63c:	6a 01       	movw	r12, r20
     63e:	30 2e       	mov	r3, r16
     640:	a9 01       	movw	r20, r18
     642:	46 1b       	sub	r20, r22
     644:	57 0b       	sbc	r21, r23
     646:	57 ff       	sbrs	r21, 7
     648:	03 c0       	rjmp	.+6      	; 0x650 <writeLine+0x3a>
     64a:	51 95       	neg	r21
     64c:	41 95       	neg	r20
     64e:	51 09       	sbc	r21, r1
     650:	c6 01       	movw	r24, r12
     652:	8c 1b       	sub	r24, r28
     654:	9d 0b       	sbc	r25, r29
     656:	97 ff       	sbrs	r25, 7
     658:	03 c0       	rjmp	.+6      	; 0x660 <writeLine+0x4a>
     65a:	91 95       	neg	r25
     65c:	81 95       	neg	r24
     65e:	91 09       	sbc	r25, r1
     660:	66 24       	eor	r6, r6
     662:	63 94       	inc	r6
     664:	71 2c       	mov	r7, r1
     666:	84 17       	cp	r24, r20
     668:	95 07       	cpc	r25, r21
     66a:	14 f0       	brlt	.+4      	; 0x670 <writeLine+0x5a>
     66c:	61 2c       	mov	r6, r1
     66e:	71 2c       	mov	r7, r1
     670:	61 14       	cp	r6, r1
     672:	71 04       	cpc	r7, r1
     674:	51 f0       	breq	.+20     	; 0x68a <writeLine+0x74>
     676:	9c 2d       	mov	r25, r12
     678:	8d 2d       	mov	r24, r13
     67a:	69 01       	movw	r12, r18
     67c:	29 2f       	mov	r18, r25
     67e:	38 2f       	mov	r19, r24
     680:	9c 2f       	mov	r25, r28
     682:	8d 2f       	mov	r24, r29
     684:	e7 01       	movw	r28, r14
     686:	e9 2e       	mov	r14, r25
     688:	f8 2e       	mov	r15, r24
     68a:	cc 16       	cp	r12, r28
     68c:	dd 06       	cpc	r13, r29
     68e:	54 f4       	brge	.+20     	; 0x6a4 <writeLine+0x8e>
     690:	9e 2d       	mov	r25, r14
     692:	8f 2d       	mov	r24, r15
     694:	79 01       	movw	r14, r18
     696:	29 2f       	mov	r18, r25
     698:	38 2f       	mov	r19, r24
     69a:	9c 2f       	mov	r25, r28
     69c:	8d 2f       	mov	r24, r29
     69e:	e6 01       	movw	r28, r12
     6a0:	c9 2e       	mov	r12, r25
     6a2:	d8 2e       	mov	r13, r24
     6a4:	56 01       	movw	r10, r12
     6a6:	ac 1a       	sub	r10, r28
     6a8:	bd 0a       	sbc	r11, r29
     6aa:	49 01       	movw	r8, r18
     6ac:	8e 18       	sub	r8, r14
     6ae:	9f 08       	sbc	r9, r15
     6b0:	97 fe       	sbrs	r9, 7
     6b2:	03 c0       	rjmp	.+6      	; 0x6ba <writeLine+0xa4>
     6b4:	91 94       	neg	r9
     6b6:	81 94       	neg	r8
     6b8:	91 08       	sbc	r9, r1
     6ba:	25 01       	movw	r4, r10
     6bc:	b7 fe       	sbrs	r11, 7
     6be:	03 c0       	rjmp	.+6      	; 0x6c6 <writeLine+0xb0>
     6c0:	8f ef       	ldi	r24, 0xFF	; 255
     6c2:	48 1a       	sub	r4, r24
     6c4:	58 0a       	sbc	r5, r24
     6c6:	55 94       	asr	r5
     6c8:	47 94       	ror	r4
     6ca:	e2 16       	cp	r14, r18
     6cc:	f3 06       	cpc	r15, r19
     6ce:	1c f4       	brge	.+6      	; 0x6d6 <writeLine+0xc0>
     6d0:	01 e0       	ldi	r16, 0x01	; 1
     6d2:	10 e0       	ldi	r17, 0x00	; 0
     6d4:	14 c0       	rjmp	.+40     	; 0x6fe <writeLine+0xe8>
     6d6:	0f ef       	ldi	r16, 0xFF	; 255
     6d8:	1f ef       	ldi	r17, 0xFF	; 255
     6da:	11 c0       	rjmp	.+34     	; 0x6fe <writeLine+0xe8>
     6dc:	43 2d       	mov	r20, r3
     6de:	61 14       	cp	r6, r1
     6e0:	71 04       	cpc	r7, r1
     6e2:	89 f0       	breq	.+34     	; 0x706 <writeLine+0xf0>
     6e4:	6c 2f       	mov	r22, r28
     6e6:	8e 2d       	mov	r24, r14
     6e8:	0e 94 a0 19 	call	0x3340	; 0x3340 <LCD_SetPixel>
     6ec:	48 18       	sub	r4, r8
     6ee:	59 08       	sbc	r5, r9
     6f0:	57 fe       	sbrs	r5, 7
     6f2:	04 c0       	rjmp	.+8      	; 0x6fc <writeLine+0xe6>
     6f4:	e0 0e       	add	r14, r16
     6f6:	f1 1e       	adc	r15, r17
     6f8:	4a 0c       	add	r4, r10
     6fa:	5b 1c       	adc	r5, r11
     6fc:	21 96       	adiw	r28, 0x01	; 1
     6fe:	cc 16       	cp	r12, r28
     700:	dd 06       	cpc	r13, r29
     702:	64 f7       	brge	.-40     	; 0x6dc <writeLine+0xc6>
     704:	03 c0       	rjmp	.+6      	; 0x70c <writeLine+0xf6>
     706:	6e 2d       	mov	r22, r14
     708:	8c 2f       	mov	r24, r28
     70a:	ee cf       	rjmp	.-36     	; 0x6e8 <writeLine+0xd2>
     70c:	df 91       	pop	r29
     70e:	cf 91       	pop	r28
     710:	1f 91       	pop	r17
     712:	0f 91       	pop	r16
     714:	ff 90       	pop	r15
     716:	ef 90       	pop	r14
     718:	df 90       	pop	r13
     71a:	cf 90       	pop	r12
     71c:	bf 90       	pop	r11
     71e:	af 90       	pop	r10
     720:	9f 90       	pop	r9
     722:	8f 90       	pop	r8
     724:	7f 90       	pop	r7
     726:	6f 90       	pop	r6
     728:	5f 90       	pop	r5
     72a:	4f 90       	pop	r4
     72c:	3f 90       	pop	r3
     72e:	08 95       	ret

00000730 <drawFastVLine>:
     730:	0f 93       	push	r16
     732:	1f 93       	push	r17
     734:	46 0f       	add	r20, r22
     736:	57 1f       	adc	r21, r23
     738:	41 50       	subi	r20, 0x01	; 1
     73a:	51 09       	sbc	r21, r1
     73c:	89 01       	movw	r16, r18
     73e:	9a 01       	movw	r18, r20
     740:	ac 01       	movw	r20, r24
     742:	0e 94 0b 03 	call	0x616	; 0x616 <writeLine>
     746:	1f 91       	pop	r17
     748:	0f 91       	pop	r16
     74a:	08 95       	ret

0000074c <drawFastHLine>:
     74c:	0f 93       	push	r16
     74e:	1f 93       	push	r17
     750:	48 0f       	add	r20, r24
     752:	59 1f       	adc	r21, r25
     754:	41 50       	subi	r20, 0x01	; 1
     756:	51 09       	sbc	r21, r1
     758:	89 01       	movw	r16, r18
     75a:	9b 01       	movw	r18, r22
     75c:	0e 94 0b 03 	call	0x616	; 0x616 <writeLine>
     760:	1f 91       	pop	r17
     762:	0f 91       	pop	r16
     764:	08 95       	ret

00000766 <drawCircle>:
     766:	4f 92       	push	r4
     768:	5f 92       	push	r5
     76a:	6f 92       	push	r6
     76c:	7f 92       	push	r7
     76e:	8f 92       	push	r8
     770:	9f 92       	push	r9
     772:	af 92       	push	r10
     774:	bf 92       	push	r11
     776:	cf 92       	push	r12
     778:	df 92       	push	r13
     77a:	ef 92       	push	r14
     77c:	ff 92       	push	r15
     77e:	0f 93       	push	r16
     780:	1f 93       	push	r17
     782:	cf 93       	push	r28
     784:	df 93       	push	r29
     786:	88 2e       	mov	r8, r24
     788:	76 2e       	mov	r7, r22
     78a:	ea 01       	movw	r28, r20
     78c:	92 2e       	mov	r9, r18
     78e:	ee 24       	eor	r14, r14
     790:	e3 94       	inc	r14
     792:	f1 2c       	mov	r15, r1
     794:	e4 1a       	sub	r14, r20
     796:	f5 0a       	sbc	r15, r21
     798:	cc 24       	eor	r12, r12
     79a:	dd 24       	eor	r13, r13
     79c:	c4 1a       	sub	r12, r20
     79e:	d5 0a       	sbc	r13, r21
     7a0:	cc 0c       	add	r12, r12
     7a2:	dd 1c       	adc	r13, r13
     7a4:	64 2f       	mov	r22, r20
     7a6:	67 0d       	add	r22, r7
     7a8:	42 2f       	mov	r20, r18
     7aa:	0e 94 a0 19 	call	0x3340	; 0x3340 <LCD_SetPixel>
     7ae:	67 2d       	mov	r22, r7
     7b0:	6c 1b       	sub	r22, r28
     7b2:	49 2d       	mov	r20, r9
     7b4:	88 2d       	mov	r24, r8
     7b6:	0e 94 a0 19 	call	0x3340	; 0x3340 <LCD_SetPixel>
     7ba:	49 2d       	mov	r20, r9
     7bc:	67 2d       	mov	r22, r7
     7be:	8c 2f       	mov	r24, r28
     7c0:	88 0d       	add	r24, r8
     7c2:	0e 94 a0 19 	call	0x3340	; 0x3340 <LCD_SetPixel>
     7c6:	49 2d       	mov	r20, r9
     7c8:	67 2d       	mov	r22, r7
     7ca:	88 2d       	mov	r24, r8
     7cc:	8c 1b       	sub	r24, r28
     7ce:	0e 94 a0 19 	call	0x3340	; 0x3340 <LCD_SetPixel>
     7d2:	00 e0       	ldi	r16, 0x00	; 0
     7d4:	10 e0       	ldi	r17, 0x00	; 0
     7d6:	aa 24       	eor	r10, r10
     7d8:	a3 94       	inc	r10
     7da:	b1 2c       	mov	r11, r1
     7dc:	0c 17       	cp	r16, r28
     7de:	1d 07       	cpc	r17, r29
     7e0:	0c f0       	brlt	.+2      	; 0x7e4 <drawCircle+0x7e>
     7e2:	48 c0       	rjmp	.+144    	; 0x874 <drawCircle+0x10e>
     7e4:	f7 fc       	sbrc	r15, 7
     7e6:	06 c0       	rjmp	.+12     	; 0x7f4 <drawCircle+0x8e>
     7e8:	21 97       	sbiw	r28, 0x01	; 1
     7ea:	82 e0       	ldi	r24, 0x02	; 2
     7ec:	c8 0e       	add	r12, r24
     7ee:	d1 1c       	adc	r13, r1
     7f0:	ec 0c       	add	r14, r12
     7f2:	fd 1c       	adc	r15, r13
     7f4:	0f 5f       	subi	r16, 0xFF	; 255
     7f6:	1f 4f       	sbci	r17, 0xFF	; 255
     7f8:	92 e0       	ldi	r25, 0x02	; 2
     7fa:	a9 0e       	add	r10, r25
     7fc:	b1 1c       	adc	r11, r1
     7fe:	ea 0c       	add	r14, r10
     800:	fb 1c       	adc	r15, r11
     802:	48 2c       	mov	r4, r8
     804:	40 0e       	add	r4, r16
     806:	49 2d       	mov	r20, r9
     808:	5c 2e       	mov	r5, r28
     80a:	57 0c       	add	r5, r7
     80c:	65 2d       	mov	r22, r5
     80e:	84 2d       	mov	r24, r4
     810:	0e 94 a0 19 	call	0x3340	; 0x3340 <LCD_SetPixel>
     814:	68 2c       	mov	r6, r8
     816:	60 1a       	sub	r6, r16
     818:	49 2d       	mov	r20, r9
     81a:	65 2d       	mov	r22, r5
     81c:	86 2d       	mov	r24, r6
     81e:	0e 94 a0 19 	call	0x3340	; 0x3340 <LCD_SetPixel>
     822:	49 2d       	mov	r20, r9
     824:	57 2c       	mov	r5, r7
     826:	5c 1a       	sub	r5, r28
     828:	65 2d       	mov	r22, r5
     82a:	84 2d       	mov	r24, r4
     82c:	0e 94 a0 19 	call	0x3340	; 0x3340 <LCD_SetPixel>
     830:	49 2d       	mov	r20, r9
     832:	65 2d       	mov	r22, r5
     834:	86 2d       	mov	r24, r6
     836:	0e 94 a0 19 	call	0x3340	; 0x3340 <LCD_SetPixel>
     83a:	67 2c       	mov	r6, r7
     83c:	60 0e       	add	r6, r16
     83e:	49 2d       	mov	r20, r9
     840:	66 2d       	mov	r22, r6
     842:	4c 2e       	mov	r4, r28
     844:	48 0c       	add	r4, r8
     846:	84 2d       	mov	r24, r4
     848:	0e 94 a0 19 	call	0x3340	; 0x3340 <LCD_SetPixel>
     84c:	49 2d       	mov	r20, r9
     84e:	66 2d       	mov	r22, r6
     850:	68 2c       	mov	r6, r8
     852:	6c 1a       	sub	r6, r28
     854:	86 2d       	mov	r24, r6
     856:	0e 94 a0 19 	call	0x3340	; 0x3340 <LCD_SetPixel>
     85a:	57 2c       	mov	r5, r7
     85c:	50 1a       	sub	r5, r16
     85e:	49 2d       	mov	r20, r9
     860:	65 2d       	mov	r22, r5
     862:	84 2d       	mov	r24, r4
     864:	0e 94 a0 19 	call	0x3340	; 0x3340 <LCD_SetPixel>
     868:	49 2d       	mov	r20, r9
     86a:	65 2d       	mov	r22, r5
     86c:	86 2d       	mov	r24, r6
     86e:	0e 94 a0 19 	call	0x3340	; 0x3340 <LCD_SetPixel>
     872:	b4 cf       	rjmp	.-152    	; 0x7dc <drawCircle+0x76>
     874:	df 91       	pop	r29
     876:	cf 91       	pop	r28
     878:	1f 91       	pop	r17
     87a:	0f 91       	pop	r16
     87c:	ff 90       	pop	r15
     87e:	ef 90       	pop	r14
     880:	df 90       	pop	r13
     882:	cf 90       	pop	r12
     884:	bf 90       	pop	r11
     886:	af 90       	pop	r10
     888:	9f 90       	pop	r9
     88a:	8f 90       	pop	r8
     88c:	7f 90       	pop	r7
     88e:	6f 90       	pop	r6
     890:	5f 90       	pop	r5
     892:	4f 90       	pop	r4
     894:	08 95       	ret

00000896 <fillCircleHelper>:
     896:	2f 92       	push	r2
     898:	3f 92       	push	r3
     89a:	4f 92       	push	r4
     89c:	5f 92       	push	r5
     89e:	6f 92       	push	r6
     8a0:	7f 92       	push	r7
     8a2:	8f 92       	push	r8
     8a4:	9f 92       	push	r9
     8a6:	af 92       	push	r10
     8a8:	bf 92       	push	r11
     8aa:	cf 92       	push	r12
     8ac:	df 92       	push	r13
     8ae:	ef 92       	push	r14
     8b0:	ff 92       	push	r15
     8b2:	0f 93       	push	r16
     8b4:	1f 93       	push	r17
     8b6:	cf 93       	push	r28
     8b8:	df 93       	push	r29
     8ba:	00 d0       	rcall	.+0      	; 0x8bc <fillCircleHelper+0x26>
     8bc:	00 d0       	rcall	.+0      	; 0x8be <fillCircleHelper+0x28>
     8be:	cd b7       	in	r28, 0x3d	; 61
     8c0:	de b7       	in	r29, 0x3e	; 62
     8c2:	5c 01       	movw	r10, r24
     8c4:	4b 01       	movw	r8, r22
     8c6:	5c 83       	std	Y+4, r21	; 0x04
     8c8:	4b 83       	std	Y+3, r20	; 0x03
     8ca:	28 01       	movw	r4, r16
     8cc:	cc 24       	eor	r12, r12
     8ce:	c3 94       	inc	r12
     8d0:	d1 2c       	mov	r13, r1
     8d2:	c4 1a       	sub	r12, r20
     8d4:	d5 0a       	sbc	r13, r21
     8d6:	3a 01       	movw	r6, r20
     8d8:	71 94       	neg	r7
     8da:	61 94       	neg	r6
     8dc:	71 08       	sbc	r7, r1
     8de:	66 0c       	add	r6, r6
     8e0:	77 1c       	adc	r7, r7
     8e2:	18 01       	movw	r2, r16
     8e4:	01 e0       	ldi	r16, 0x01	; 1
     8e6:	10 e0       	ldi	r17, 0x00	; 0
     8e8:	32 2f       	mov	r19, r18
     8ea:	31 70       	andi	r19, 0x01	; 1
     8ec:	39 83       	std	Y+1, r19	; 0x01
     8ee:	f1 2c       	mov	r15, r1
     8f0:	22 70       	andi	r18, 0x02	; 2
     8f2:	2a 83       	std	Y+2, r18	; 0x02
     8f4:	c8 01       	movw	r24, r16
     8f6:	01 97       	sbiw	r24, 0x01	; 1
     8f8:	2b 81       	ldd	r18, Y+3	; 0x03
     8fa:	3c 81       	ldd	r19, Y+4	; 0x04
     8fc:	82 17       	cp	r24, r18
     8fe:	93 07       	cpc	r25, r19
     900:	0c f0       	brlt	.+2      	; 0x904 <fillCircleHelper+0x6e>
     902:	5f c0       	rjmp	.+190    	; 0x9c2 <fillCircleHelper+0x12c>
     904:	d7 fc       	sbrc	r13, 7
     906:	0a c0       	rjmp	.+20     	; 0x91c <fillCircleHelper+0x86>
     908:	8b 81       	ldd	r24, Y+3	; 0x03
     90a:	9c 81       	ldd	r25, Y+4	; 0x04
     90c:	01 97       	sbiw	r24, 0x01	; 1
     90e:	9c 83       	std	Y+4, r25	; 0x04
     910:	8b 83       	std	Y+3, r24	; 0x03
     912:	92 e0       	ldi	r25, 0x02	; 2
     914:	69 0e       	add	r6, r25
     916:	71 1c       	adc	r7, r1
     918:	c6 0c       	add	r12, r6
     91a:	d7 1c       	adc	r13, r7
     91c:	c8 01       	movw	r24, r16
     91e:	88 0f       	add	r24, r24
     920:	99 1f       	adc	r25, r25
     922:	01 96       	adiw	r24, 0x01	; 1
     924:	c8 0e       	add	r12, r24
     926:	d9 1e       	adc	r13, r25
     928:	e9 81       	ldd	r30, Y+1	; 0x01
     92a:	ee 23       	and	r30, r30
     92c:	01 f1       	breq	.+64     	; 0x96e <fillCircleHelper+0xd8>
     92e:	4b 81       	ldd	r20, Y+3	; 0x03
     930:	5c 81       	ldd	r21, Y+4	; 0x04
     932:	44 0f       	add	r20, r20
     934:	55 1f       	adc	r21, r21
     936:	4f 5f       	subi	r20, 0xFF	; 255
     938:	5f 4f       	sbci	r21, 0xFF	; 255
     93a:	44 0d       	add	r20, r4
     93c:	55 1d       	adc	r21, r5
     93e:	97 01       	movw	r18, r14
     940:	b4 01       	movw	r22, r8
     942:	8b 81       	ldd	r24, Y+3	; 0x03
     944:	9c 81       	ldd	r25, Y+4	; 0x04
     946:	68 1b       	sub	r22, r24
     948:	79 0b       	sbc	r23, r25
     94a:	c8 01       	movw	r24, r16
     94c:	8a 0d       	add	r24, r10
     94e:	9b 1d       	adc	r25, r11
     950:	0e 94 98 03 	call	0x730	; 0x730 <drawFastVLine>
     954:	97 01       	movw	r18, r14
     956:	a1 01       	movw	r20, r2
     958:	4d 5f       	subi	r20, 0xFD	; 253
     95a:	5f 4f       	sbci	r21, 0xFF	; 255
     95c:	b4 01       	movw	r22, r8
     95e:	60 1b       	sub	r22, r16
     960:	71 0b       	sbc	r23, r17
     962:	8b 81       	ldd	r24, Y+3	; 0x03
     964:	9c 81       	ldd	r25, Y+4	; 0x04
     966:	8a 0d       	add	r24, r10
     968:	9b 1d       	adc	r25, r11
     96a:	0e 94 98 03 	call	0x730	; 0x730 <drawFastVLine>
     96e:	9a 81       	ldd	r25, Y+2	; 0x02
     970:	99 23       	and	r25, r25
     972:	09 f1       	breq	.+66     	; 0x9b6 <fillCircleHelper+0x120>
     974:	4b 81       	ldd	r20, Y+3	; 0x03
     976:	5c 81       	ldd	r21, Y+4	; 0x04
     978:	44 0f       	add	r20, r20
     97a:	55 1f       	adc	r21, r21
     97c:	4f 5f       	subi	r20, 0xFF	; 255
     97e:	5f 4f       	sbci	r21, 0xFF	; 255
     980:	44 0d       	add	r20, r4
     982:	55 1d       	adc	r21, r5
     984:	97 01       	movw	r18, r14
     986:	b4 01       	movw	r22, r8
     988:	eb 81       	ldd	r30, Y+3	; 0x03
     98a:	fc 81       	ldd	r31, Y+4	; 0x04
     98c:	6e 1b       	sub	r22, r30
     98e:	7f 0b       	sbc	r23, r31
     990:	c5 01       	movw	r24, r10
     992:	80 1b       	sub	r24, r16
     994:	91 0b       	sbc	r25, r17
     996:	0e 94 98 03 	call	0x730	; 0x730 <drawFastVLine>
     99a:	97 01       	movw	r18, r14
     99c:	a1 01       	movw	r20, r2
     99e:	4d 5f       	subi	r20, 0xFD	; 253
     9a0:	5f 4f       	sbci	r21, 0xFF	; 255
     9a2:	b4 01       	movw	r22, r8
     9a4:	60 1b       	sub	r22, r16
     9a6:	71 0b       	sbc	r23, r17
     9a8:	c5 01       	movw	r24, r10
     9aa:	eb 81       	ldd	r30, Y+3	; 0x03
     9ac:	fc 81       	ldd	r31, Y+4	; 0x04
     9ae:	8e 1b       	sub	r24, r30
     9b0:	9f 0b       	sbc	r25, r31
     9b2:	0e 94 98 03 	call	0x730	; 0x730 <drawFastVLine>
     9b6:	0f 5f       	subi	r16, 0xFF	; 255
     9b8:	1f 4f       	sbci	r17, 0xFF	; 255
     9ba:	f2 e0       	ldi	r31, 0x02	; 2
     9bc:	2f 0e       	add	r2, r31
     9be:	31 1c       	adc	r3, r1
     9c0:	99 cf       	rjmp	.-206    	; 0x8f4 <fillCircleHelper+0x5e>
     9c2:	0f 90       	pop	r0
     9c4:	0f 90       	pop	r0
     9c6:	0f 90       	pop	r0
     9c8:	0f 90       	pop	r0
     9ca:	df 91       	pop	r29
     9cc:	cf 91       	pop	r28
     9ce:	1f 91       	pop	r17
     9d0:	0f 91       	pop	r16
     9d2:	ff 90       	pop	r15
     9d4:	ef 90       	pop	r14
     9d6:	df 90       	pop	r13
     9d8:	cf 90       	pop	r12
     9da:	bf 90       	pop	r11
     9dc:	af 90       	pop	r10
     9de:	9f 90       	pop	r9
     9e0:	8f 90       	pop	r8
     9e2:	7f 90       	pop	r7
     9e4:	6f 90       	pop	r6
     9e6:	5f 90       	pop	r5
     9e8:	4f 90       	pop	r4
     9ea:	3f 90       	pop	r3
     9ec:	2f 90       	pop	r2
     9ee:	08 95       	ret

000009f0 <fillCircle>:
     9f0:	af 92       	push	r10
     9f2:	bf 92       	push	r11
     9f4:	cf 92       	push	r12
     9f6:	df 92       	push	r13
     9f8:	ef 92       	push	r14
     9fa:	0f 93       	push	r16
     9fc:	1f 93       	push	r17
     9fe:	cf 93       	push	r28
     a00:	df 93       	push	r29
     a02:	6c 01       	movw	r12, r24
     a04:	5b 01       	movw	r10, r22
     a06:	e2 2e       	mov	r14, r18
     a08:	c4 2f       	mov	r28, r20
     a0a:	d0 e0       	ldi	r29, 0x00	; 0
     a0c:	30 e0       	ldi	r19, 0x00	; 0
     a0e:	ae 01       	movw	r20, r28
     a10:	44 0f       	add	r20, r20
     a12:	55 1f       	adc	r21, r21
     a14:	4f 5f       	subi	r20, 0xFF	; 255
     a16:	5f 4f       	sbci	r21, 0xFF	; 255
     a18:	b5 01       	movw	r22, r10
     a1a:	6c 1b       	sub	r22, r28
     a1c:	7d 0b       	sbc	r23, r29
     a1e:	0e 94 98 03 	call	0x730	; 0x730 <drawFastVLine>
     a22:	00 e0       	ldi	r16, 0x00	; 0
     a24:	10 e0       	ldi	r17, 0x00	; 0
     a26:	23 e0       	ldi	r18, 0x03	; 3
     a28:	ae 01       	movw	r20, r28
     a2a:	b5 01       	movw	r22, r10
     a2c:	c6 01       	movw	r24, r12
     a2e:	0e 94 4b 04 	call	0x896	; 0x896 <fillCircleHelper>
     a32:	df 91       	pop	r29
     a34:	cf 91       	pop	r28
     a36:	1f 91       	pop	r17
     a38:	0f 91       	pop	r16
     a3a:	ef 90       	pop	r14
     a3c:	df 90       	pop	r13
     a3e:	cf 90       	pop	r12
     a40:	bf 90       	pop	r11
     a42:	af 90       	pop	r10
     a44:	08 95       	ret

00000a46 <drawRect>:
     a46:	af 92       	push	r10
     a48:	bf 92       	push	r11
     a4a:	cf 92       	push	r12
     a4c:	df 92       	push	r13
     a4e:	ef 92       	push	r14
     a50:	ff 92       	push	r15
     a52:	0f 93       	push	r16
     a54:	1f 93       	push	r17
     a56:	cf 93       	push	r28
     a58:	df 93       	push	r29
     a5a:	7c 01       	movw	r14, r24
     a5c:	eb 01       	movw	r28, r22
     a5e:	5a 01       	movw	r10, r20
     a60:	69 01       	movw	r12, r18
     a62:	98 01       	movw	r18, r16
     a64:	0e 94 a6 03 	call	0x74c	; 0x74c <drawFastHLine>
     a68:	be 01       	movw	r22, r28
     a6a:	6c 0d       	add	r22, r12
     a6c:	7d 1d       	adc	r23, r13
     a6e:	61 50       	subi	r22, 0x01	; 1
     a70:	71 09       	sbc	r23, r1
     a72:	98 01       	movw	r18, r16
     a74:	a5 01       	movw	r20, r10
     a76:	c7 01       	movw	r24, r14
     a78:	0e 94 a6 03 	call	0x74c	; 0x74c <drawFastHLine>
     a7c:	98 01       	movw	r18, r16
     a7e:	a6 01       	movw	r20, r12
     a80:	be 01       	movw	r22, r28
     a82:	c7 01       	movw	r24, r14
     a84:	0e 94 98 03 	call	0x730	; 0x730 <drawFastVLine>
     a88:	c7 01       	movw	r24, r14
     a8a:	8a 0d       	add	r24, r10
     a8c:	9b 1d       	adc	r25, r11
     a8e:	98 01       	movw	r18, r16
     a90:	a6 01       	movw	r20, r12
     a92:	be 01       	movw	r22, r28
     a94:	01 97       	sbiw	r24, 0x01	; 1
     a96:	df 91       	pop	r29
     a98:	cf 91       	pop	r28
     a9a:	1f 91       	pop	r17
     a9c:	0f 91       	pop	r16
     a9e:	ff 90       	pop	r15
     aa0:	ef 90       	pop	r14
     aa2:	df 90       	pop	r13
     aa4:	cf 90       	pop	r12
     aa6:	bf 90       	pop	r11
     aa8:	af 90       	pop	r10
     aaa:	0c 94 98 03 	jmp	0x730	; 0x730 <drawFastVLine>

00000aae <fillRect>:
     aae:	9f 92       	push	r9
     ab0:	af 92       	push	r10
     ab2:	bf 92       	push	r11
     ab4:	cf 92       	push	r12
     ab6:	df 92       	push	r13
     ab8:	ef 92       	push	r14
     aba:	ff 92       	push	r15
     abc:	0f 93       	push	r16
     abe:	1f 93       	push	r17
     ac0:	cf 93       	push	r28
     ac2:	df 93       	push	r29
     ac4:	6b 01       	movw	r12, r22
     ac6:	ea 01       	movw	r28, r20
     ac8:	59 01       	movw	r10, r18
     aca:	98 2e       	mov	r9, r24
     acc:	e1 2c       	mov	r14, r1
     ace:	f1 2c       	mov	r15, r1
     ad0:	c8 0f       	add	r28, r24
     ad2:	d9 1f       	adc	r29, r25
     ad4:	10 e0       	ldi	r17, 0x00	; 0
     ad6:	89 2d       	mov	r24, r9
     ad8:	8e 0d       	add	r24, r14
     ada:	90 e0       	ldi	r25, 0x00	; 0
     adc:	2f ef       	ldi	r18, 0xFF	; 255
     ade:	e2 1a       	sub	r14, r18
     ae0:	f2 0a       	sbc	r15, r18
     ae2:	8c 17       	cp	r24, r28
     ae4:	9d 07       	cpc	r25, r29
     ae6:	34 f4       	brge	.+12     	; 0xaf4 <fillRect+0x46>
     ae8:	98 01       	movw	r18, r16
     aea:	a5 01       	movw	r20, r10
     aec:	b6 01       	movw	r22, r12
     aee:	0e 94 98 03 	call	0x730	; 0x730 <drawFastVLine>
     af2:	f1 cf       	rjmp	.-30     	; 0xad6 <fillRect+0x28>
     af4:	df 91       	pop	r29
     af6:	cf 91       	pop	r28
     af8:	1f 91       	pop	r17
     afa:	0f 91       	pop	r16
     afc:	ff 90       	pop	r15
     afe:	ef 90       	pop	r14
     b00:	df 90       	pop	r13
     b02:	cf 90       	pop	r12
     b04:	bf 90       	pop	r11
     b06:	af 90       	pop	r10
     b08:	9f 90       	pop	r9
     b0a:	08 95       	ret

00000b0c <fillRoundRect>:
     b0c:	2f 92       	push	r2
     b0e:	3f 92       	push	r3
     b10:	4f 92       	push	r4
     b12:	5f 92       	push	r5
     b14:	6f 92       	push	r6
     b16:	7f 92       	push	r7
     b18:	8f 92       	push	r8
     b1a:	9f 92       	push	r9
     b1c:	af 92       	push	r10
     b1e:	bf 92       	push	r11
     b20:	cf 92       	push	r12
     b22:	df 92       	push	r13
     b24:	ef 92       	push	r14
     b26:	ff 92       	push	r15
     b28:	0f 93       	push	r16
     b2a:	1f 93       	push	r17
     b2c:	cf 93       	push	r28
     b2e:	df 93       	push	r29
     b30:	4c 01       	movw	r8, r24
     b32:	3b 01       	movw	r6, r22
     b34:	1a 01       	movw	r2, r20
     b36:	69 01       	movw	r12, r18
     b38:	c0 2f       	mov	r28, r16
     b3a:	d0 e0       	ldi	r29, 0x00	; 0
     b3c:	44 24       	eor	r4, r4
     b3e:	55 24       	eor	r5, r5
     b40:	4c 1a       	sub	r4, r28
     b42:	5d 0a       	sbc	r5, r29
     b44:	44 0c       	add	r4, r4
     b46:	55 1c       	adc	r5, r5
     b48:	5c 01       	movw	r10, r24
     b4a:	ac 0e       	add	r10, r28
     b4c:	bd 1e       	adc	r11, r29
     b4e:	44 0d       	add	r20, r4
     b50:	55 1d       	adc	r21, r5
     b52:	0e 2d       	mov	r16, r14
     b54:	b3 01       	movw	r22, r6
     b56:	c5 01       	movw	r24, r10
     b58:	0e 94 57 05 	call	0xaae	; 0xaae <fillRect>
     b5c:	c4 0c       	add	r12, r4
     b5e:	d5 1c       	adc	r13, r5
     b60:	81 e0       	ldi	r24, 0x01	; 1
     b62:	c8 1a       	sub	r12, r24
     b64:	d1 08       	sbc	r13, r1
     b66:	6c 0e       	add	r6, r28
     b68:	7d 1e       	adc	r7, r29
     b6a:	c4 01       	movw	r24, r8
     b6c:	82 0d       	add	r24, r2
     b6e:	93 1d       	adc	r25, r3
     b70:	8c 1b       	sub	r24, r28
     b72:	9d 0b       	sbc	r25, r29
     b74:	86 01       	movw	r16, r12
     b76:	21 e0       	ldi	r18, 0x01	; 1
     b78:	ae 01       	movw	r20, r28
     b7a:	b3 01       	movw	r22, r6
     b7c:	01 97       	sbiw	r24, 0x01	; 1
     b7e:	0e 94 4b 04 	call	0x896	; 0x896 <fillCircleHelper>
     b82:	22 e0       	ldi	r18, 0x02	; 2
     b84:	ae 01       	movw	r20, r28
     b86:	b3 01       	movw	r22, r6
     b88:	c5 01       	movw	r24, r10
     b8a:	0e 94 4b 04 	call	0x896	; 0x896 <fillCircleHelper>
     b8e:	df 91       	pop	r29
     b90:	cf 91       	pop	r28
     b92:	1f 91       	pop	r17
     b94:	0f 91       	pop	r16
     b96:	ff 90       	pop	r15
     b98:	ef 90       	pop	r14
     b9a:	df 90       	pop	r13
     b9c:	cf 90       	pop	r12
     b9e:	bf 90       	pop	r11
     ba0:	af 90       	pop	r10
     ba2:	9f 90       	pop	r9
     ba4:	8f 90       	pop	r8
     ba6:	7f 90       	pop	r7
     ba8:	6f 90       	pop	r6
     baa:	5f 90       	pop	r5
     bac:	4f 90       	pop	r4
     bae:	3f 90       	pop	r3
     bb0:	2f 90       	pop	r2
     bb2:	08 95       	ret

00000bb4 <drawCircleHelper>:
     bb4:	3f 92       	push	r3
     bb6:	4f 92       	push	r4
     bb8:	5f 92       	push	r5
     bba:	6f 92       	push	r6
     bbc:	7f 92       	push	r7
     bbe:	8f 92       	push	r8
     bc0:	9f 92       	push	r9
     bc2:	af 92       	push	r10
     bc4:	bf 92       	push	r11
     bc6:	cf 92       	push	r12
     bc8:	df 92       	push	r13
     bca:	ef 92       	push	r14
     bcc:	ff 92       	push	r15
     bce:	0f 93       	push	r16
     bd0:	1f 93       	push	r17
     bd2:	cf 93       	push	r28
     bd4:	df 93       	push	r29
     bd6:	18 2f       	mov	r17, r24
     bd8:	76 2e       	mov	r7, r22
     bda:	c4 2f       	mov	r28, r20
     bdc:	d0 e0       	ldi	r29, 0x00	; 0
     bde:	cc 24       	eor	r12, r12
     be0:	c3 94       	inc	r12
     be2:	d1 2c       	mov	r13, r1
     be4:	cc 1a       	sub	r12, r28
     be6:	dd 0a       	sbc	r13, r29
     be8:	aa 24       	eor	r10, r10
     bea:	bb 24       	eor	r11, r11
     bec:	ac 1a       	sub	r10, r28
     bee:	bd 0a       	sbc	r11, r29
     bf0:	aa 0c       	add	r10, r10
     bf2:	bb 1c       	adc	r11, r11
     bf4:	e1 2c       	mov	r14, r1
     bf6:	f1 2c       	mov	r15, r1
     bf8:	88 24       	eor	r8, r8
     bfa:	83 94       	inc	r8
     bfc:	91 2c       	mov	r9, r1
     bfe:	82 2f       	mov	r24, r18
     c00:	84 70       	andi	r24, 0x04	; 4
     c02:	68 2e       	mov	r6, r24
     c04:	92 2f       	mov	r25, r18
     c06:	92 70       	andi	r25, 0x02	; 2
     c08:	59 2e       	mov	r5, r25
     c0a:	82 2f       	mov	r24, r18
     c0c:	88 70       	andi	r24, 0x08	; 8
     c0e:	48 2e       	mov	r4, r24
     c10:	21 70       	andi	r18, 0x01	; 1
     c12:	32 2e       	mov	r3, r18
     c14:	ec 16       	cp	r14, r28
     c16:	fd 06       	cpc	r15, r29
     c18:	0c f0       	brlt	.+2      	; 0xc1c <drawCircleHelper+0x68>
     c1a:	52 c0       	rjmp	.+164    	; 0xcc0 <drawCircleHelper+0x10c>
     c1c:	d7 fc       	sbrc	r13, 7
     c1e:	06 c0       	rjmp	.+12     	; 0xc2c <drawCircleHelper+0x78>
     c20:	21 97       	sbiw	r28, 0x01	; 1
     c22:	92 e0       	ldi	r25, 0x02	; 2
     c24:	a9 0e       	add	r10, r25
     c26:	b1 1c       	adc	r11, r1
     c28:	ca 0c       	add	r12, r10
     c2a:	db 1c       	adc	r13, r11
     c2c:	8f ef       	ldi	r24, 0xFF	; 255
     c2e:	e8 1a       	sub	r14, r24
     c30:	f8 0a       	sbc	r15, r24
     c32:	92 e0       	ldi	r25, 0x02	; 2
     c34:	89 0e       	add	r8, r25
     c36:	91 1c       	adc	r9, r1
     c38:	c8 0c       	add	r12, r8
     c3a:	d9 1c       	adc	r13, r9
     c3c:	66 20       	and	r6, r6
     c3e:	71 f0       	breq	.+28     	; 0xc5c <drawCircleHelper+0xa8>
     c40:	40 2f       	mov	r20, r16
     c42:	6c 2f       	mov	r22, r28
     c44:	67 0d       	add	r22, r7
     c46:	81 2f       	mov	r24, r17
     c48:	8e 0d       	add	r24, r14
     c4a:	0e 94 a0 19 	call	0x3340	; 0x3340 <LCD_SetPixel>
     c4e:	40 2f       	mov	r20, r16
     c50:	67 2d       	mov	r22, r7
     c52:	6e 0d       	add	r22, r14
     c54:	8c 2f       	mov	r24, r28
     c56:	81 0f       	add	r24, r17
     c58:	0e 94 a0 19 	call	0x3340	; 0x3340 <LCD_SetPixel>
     c5c:	55 20       	and	r5, r5
     c5e:	71 f0       	breq	.+28     	; 0xc7c <drawCircleHelper+0xc8>
     c60:	40 2f       	mov	r20, r16
     c62:	67 2d       	mov	r22, r7
     c64:	6c 1b       	sub	r22, r28
     c66:	81 2f       	mov	r24, r17
     c68:	8e 0d       	add	r24, r14
     c6a:	0e 94 a0 19 	call	0x3340	; 0x3340 <LCD_SetPixel>
     c6e:	40 2f       	mov	r20, r16
     c70:	67 2d       	mov	r22, r7
     c72:	6e 19       	sub	r22, r14
     c74:	8c 2f       	mov	r24, r28
     c76:	81 0f       	add	r24, r17
     c78:	0e 94 a0 19 	call	0x3340	; 0x3340 <LCD_SetPixel>
     c7c:	44 20       	and	r4, r4
     c7e:	71 f0       	breq	.+28     	; 0xc9c <drawCircleHelper+0xe8>
     c80:	40 2f       	mov	r20, r16
     c82:	67 2d       	mov	r22, r7
     c84:	6e 0d       	add	r22, r14
     c86:	81 2f       	mov	r24, r17
     c88:	8c 1b       	sub	r24, r28
     c8a:	0e 94 a0 19 	call	0x3340	; 0x3340 <LCD_SetPixel>
     c8e:	40 2f       	mov	r20, r16
     c90:	6c 2f       	mov	r22, r28
     c92:	67 0d       	add	r22, r7
     c94:	81 2f       	mov	r24, r17
     c96:	8e 19       	sub	r24, r14
     c98:	0e 94 a0 19 	call	0x3340	; 0x3340 <LCD_SetPixel>
     c9c:	33 20       	and	r3, r3
     c9e:	09 f4       	brne	.+2      	; 0xca2 <drawCircleHelper+0xee>
     ca0:	b9 cf       	rjmp	.-142    	; 0xc14 <drawCircleHelper+0x60>
     ca2:	40 2f       	mov	r20, r16
     ca4:	67 2d       	mov	r22, r7
     ca6:	6e 19       	sub	r22, r14
     ca8:	81 2f       	mov	r24, r17
     caa:	8c 1b       	sub	r24, r28
     cac:	0e 94 a0 19 	call	0x3340	; 0x3340 <LCD_SetPixel>
     cb0:	40 2f       	mov	r20, r16
     cb2:	67 2d       	mov	r22, r7
     cb4:	6c 1b       	sub	r22, r28
     cb6:	81 2f       	mov	r24, r17
     cb8:	8e 19       	sub	r24, r14
     cba:	0e 94 a0 19 	call	0x3340	; 0x3340 <LCD_SetPixel>
     cbe:	aa cf       	rjmp	.-172    	; 0xc14 <drawCircleHelper+0x60>
     cc0:	df 91       	pop	r29
     cc2:	cf 91       	pop	r28
     cc4:	1f 91       	pop	r17
     cc6:	0f 91       	pop	r16
     cc8:	ff 90       	pop	r15
     cca:	ef 90       	pop	r14
     ccc:	df 90       	pop	r13
     cce:	cf 90       	pop	r12
     cd0:	bf 90       	pop	r11
     cd2:	af 90       	pop	r10
     cd4:	9f 90       	pop	r9
     cd6:	8f 90       	pop	r8
     cd8:	7f 90       	pop	r7
     cda:	6f 90       	pop	r6
     cdc:	5f 90       	pop	r5
     cde:	4f 90       	pop	r4
     ce0:	3f 90       	pop	r3
     ce2:	08 95       	ret

00000ce4 <drawRoundRect>:
     ce4:	2f 92       	push	r2
     ce6:	3f 92       	push	r3
     ce8:	4f 92       	push	r4
     cea:	5f 92       	push	r5
     cec:	6f 92       	push	r6
     cee:	7f 92       	push	r7
     cf0:	8f 92       	push	r8
     cf2:	9f 92       	push	r9
     cf4:	af 92       	push	r10
     cf6:	bf 92       	push	r11
     cf8:	cf 92       	push	r12
     cfa:	df 92       	push	r13
     cfc:	ef 92       	push	r14
     cfe:	0f 93       	push	r16
     d00:	1f 93       	push	r17
     d02:	cf 93       	push	r28
     d04:	df 93       	push	r29
     d06:	cd b7       	in	r28, 0x3d	; 61
     d08:	de b7       	in	r29, 0x3e	; 62
     d0a:	28 97       	sbiw	r28, 0x08	; 8
     d0c:	0f b6       	in	r0, 0x3f	; 63
     d0e:	f8 94       	cli
     d10:	de bf       	out	0x3e, r29	; 62
     d12:	0f be       	out	0x3f, r0	; 63
     d14:	cd bf       	out	0x3d, r28	; 61
     d16:	2c 01       	movw	r4, r24
     d18:	1b 01       	movw	r2, r22
     d1a:	5e 83       	std	Y+6, r21	; 0x06
     d1c:	4d 83       	std	Y+5, r20	; 0x05
     d1e:	39 01       	movw	r6, r18
     d20:	10 2f       	mov	r17, r16
     d22:	ae 2c       	mov	r10, r14
     d24:	b1 2c       	mov	r11, r1
     d26:	80 2f       	mov	r24, r16
     d28:	90 e0       	ldi	r25, 0x00	; 0
     d2a:	98 87       	std	Y+8, r25	; 0x08
     d2c:	8f 83       	std	Y+7, r24	; 0x07
     d2e:	4c 01       	movw	r8, r24
     d30:	91 94       	neg	r9
     d32:	81 94       	neg	r8
     d34:	91 08       	sbc	r9, r1
     d36:	88 0c       	add	r8, r8
     d38:	99 1c       	adc	r9, r9
     d3a:	fa 01       	movw	r30, r20
     d3c:	e8 0d       	add	r30, r8
     d3e:	f9 1d       	adc	r31, r9
     d40:	fa 83       	std	Y+2, r31	; 0x02
     d42:	e9 83       	std	Y+1, r30	; 0x01
     d44:	6c 01       	movw	r12, r24
     d46:	c4 0c       	add	r12, r4
     d48:	d5 1c       	adc	r13, r5
     d4a:	95 01       	movw	r18, r10
     d4c:	af 01       	movw	r20, r30
     d4e:	c6 01       	movw	r24, r12
     d50:	0e 94 a6 03 	call	0x74c	; 0x74c <drawFastHLine>
     d54:	c1 01       	movw	r24, r2
     d56:	86 0d       	add	r24, r6
     d58:	97 1d       	adc	r25, r7
     d5a:	9c 83       	std	Y+4, r25	; 0x04
     d5c:	8b 83       	std	Y+3, r24	; 0x03
     d5e:	bc 01       	movw	r22, r24
     d60:	61 50       	subi	r22, 0x01	; 1
     d62:	71 09       	sbc	r23, r1
     d64:	95 01       	movw	r18, r10
     d66:	49 81       	ldd	r20, Y+1	; 0x01
     d68:	5a 81       	ldd	r21, Y+2	; 0x02
     d6a:	c6 01       	movw	r24, r12
     d6c:	0e 94 a6 03 	call	0x74c	; 0x74c <drawFastHLine>
     d70:	68 0c       	add	r6, r8
     d72:	79 1c       	adc	r7, r9
     d74:	ef 81       	ldd	r30, Y+7	; 0x07
     d76:	f8 85       	ldd	r31, Y+8	; 0x08
     d78:	2e 0e       	add	r2, r30
     d7a:	3f 1e       	adc	r3, r31
     d7c:	95 01       	movw	r18, r10
     d7e:	a3 01       	movw	r20, r6
     d80:	b1 01       	movw	r22, r2
     d82:	c2 01       	movw	r24, r4
     d84:	0e 94 98 03 	call	0x730	; 0x730 <drawFastVLine>
     d88:	8d 80       	ldd	r8, Y+5	; 0x05
     d8a:	9e 80       	ldd	r9, Y+6	; 0x06
     d8c:	84 0c       	add	r8, r4
     d8e:	95 1c       	adc	r9, r5
     d90:	95 01       	movw	r18, r10
     d92:	a3 01       	movw	r20, r6
     d94:	b1 01       	movw	r22, r2
     d96:	c4 01       	movw	r24, r8
     d98:	01 97       	sbiw	r24, 0x01	; 1
     d9a:	0e 94 98 03 	call	0x730	; 0x730 <drawFastVLine>
     d9e:	0e 2d       	mov	r16, r14
     da0:	21 e0       	ldi	r18, 0x01	; 1
     da2:	41 2f       	mov	r20, r17
     da4:	b1 01       	movw	r22, r2
     da6:	c6 01       	movw	r24, r12
     da8:	0e 94 da 05 	call	0xbb4	; 0xbb4 <drawCircleHelper>
     dac:	8f 81       	ldd	r24, Y+7	; 0x07
     dae:	98 85       	ldd	r25, Y+8	; 0x08
     db0:	88 1a       	sub	r8, r24
     db2:	99 0a       	sbc	r9, r25
     db4:	91 e0       	ldi	r25, 0x01	; 1
     db6:	89 1a       	sub	r8, r25
     db8:	91 08       	sbc	r9, r1
     dba:	22 e0       	ldi	r18, 0x02	; 2
     dbc:	41 2f       	mov	r20, r17
     dbe:	b1 01       	movw	r22, r2
     dc0:	c4 01       	movw	r24, r8
     dc2:	0e 94 da 05 	call	0xbb4	; 0xbb4 <drawCircleHelper>
     dc6:	ab 80       	ldd	r10, Y+3	; 0x03
     dc8:	bc 80       	ldd	r11, Y+4	; 0x04
     dca:	ef 81       	ldd	r30, Y+7	; 0x07
     dcc:	f8 85       	ldd	r31, Y+8	; 0x08
     dce:	ae 1a       	sub	r10, r30
     dd0:	bf 0a       	sbc	r11, r31
     dd2:	f1 e0       	ldi	r31, 0x01	; 1
     dd4:	af 1a       	sub	r10, r31
     dd6:	b1 08       	sbc	r11, r1
     dd8:	24 e0       	ldi	r18, 0x04	; 4
     dda:	41 2f       	mov	r20, r17
     ddc:	b5 01       	movw	r22, r10
     dde:	c4 01       	movw	r24, r8
     de0:	0e 94 da 05 	call	0xbb4	; 0xbb4 <drawCircleHelper>
     de4:	28 e0       	ldi	r18, 0x08	; 8
     de6:	41 2f       	mov	r20, r17
     de8:	b5 01       	movw	r22, r10
     dea:	c6 01       	movw	r24, r12
     dec:	0e 94 da 05 	call	0xbb4	; 0xbb4 <drawCircleHelper>
     df0:	28 96       	adiw	r28, 0x08	; 8
     df2:	0f b6       	in	r0, 0x3f	; 63
     df4:	f8 94       	cli
     df6:	de bf       	out	0x3e, r29	; 62
     df8:	0f be       	out	0x3f, r0	; 63
     dfa:	cd bf       	out	0x3d, r28	; 61
     dfc:	df 91       	pop	r29
     dfe:	cf 91       	pop	r28
     e00:	1f 91       	pop	r17
     e02:	0f 91       	pop	r16
     e04:	ef 90       	pop	r14
     e06:	df 90       	pop	r13
     e08:	cf 90       	pop	r12
     e0a:	bf 90       	pop	r11
     e0c:	af 90       	pop	r10
     e0e:	9f 90       	pop	r9
     e10:	8f 90       	pop	r8
     e12:	7f 90       	pop	r7
     e14:	6f 90       	pop	r6
     e16:	5f 90       	pop	r5
     e18:	4f 90       	pop	r4
     e1a:	3f 90       	pop	r3
     e1c:	2f 90       	pop	r2
     e1e:	08 95       	ret

00000e20 <mk_ssd1306_drawChar>:
     e20:	2f 92       	push	r2
     e22:	3f 92       	push	r3
     e24:	4f 92       	push	r4
     e26:	5f 92       	push	r5
     e28:	6f 92       	push	r6
     e2a:	7f 92       	push	r7
     e2c:	8f 92       	push	r8
     e2e:	9f 92       	push	r9
     e30:	af 92       	push	r10
     e32:	bf 92       	push	r11
     e34:	cf 92       	push	r12
     e36:	df 92       	push	r13
     e38:	ef 92       	push	r14
     e3a:	ff 92       	push	r15
     e3c:	0f 93       	push	r16
     e3e:	1f 93       	push	r17
     e40:	cf 93       	push	r28
     e42:	df 93       	push	r29
     e44:	00 d0       	rcall	.+0      	; 0xe46 <mk_ssd1306_drawChar+0x26>
     e46:	00 d0       	rcall	.+0      	; 0xe48 <mk_ssd1306_drawChar+0x28>
     e48:	00 d0       	rcall	.+0      	; 0xe4a <mk_ssd1306_drawChar+0x2a>
     e4a:	cd b7       	in	r28, 0x3d	; 61
     e4c:	de b7       	in	r29, 0x3e	; 62
     e4e:	5c 01       	movw	r10, r24
     e50:	6b 01       	movw	r12, r22
     e52:	2a 83       	std	Y+2, r18	; 0x02
     e54:	0b 83       	std	Y+3, r16	; 0x03
     e56:	1e 2d       	mov	r17, r14
     e58:	80 3f       	cpi	r24, 0xF0	; 240
     e5a:	91 05       	cpc	r25, r1
     e5c:	0c f0       	brlt	.+2      	; 0xe60 <mk_ssd1306_drawChar+0x40>
     e5e:	71 c0       	rjmp	.+226    	; 0xf42 <mk_ssd1306_drawChar+0x122>
     e60:	60 34       	cpi	r22, 0x40	; 64
     e62:	71 05       	cpc	r23, r1
     e64:	0c f0       	brlt	.+2      	; 0xe68 <mk_ssd1306_drawChar+0x48>
     e66:	6d c0       	rjmp	.+218    	; 0xf42 <mk_ssd1306_drawChar+0x122>
     e68:	ae 2d       	mov	r26, r14
     e6a:	b0 e0       	ldi	r27, 0x00	; 0
     e6c:	be 83       	std	Y+6, r27	; 0x06
     e6e:	ad 83       	std	Y+5, r26	; 0x05
     e70:	c5 01       	movw	r24, r10
     e72:	b6 e0       	ldi	r27, 0x06	; 6
     e74:	eb 9e       	mul	r14, r27
     e76:	80 0d       	add	r24, r0
     e78:	91 1d       	adc	r25, r1
     e7a:	11 24       	eor	r1, r1
     e7c:	18 16       	cp	r1, r24
     e7e:	19 06       	cpc	r1, r25
     e80:	0c f0       	brlt	.+2      	; 0xe84 <mk_ssd1306_drawChar+0x64>
     e82:	5f c0       	rjmp	.+190    	; 0xf42 <mk_ssd1306_drawChar+0x122>
     e84:	8d 81       	ldd	r24, Y+5	; 0x05
     e86:	9e 81       	ldd	r25, Y+6	; 0x06
     e88:	03 e0       	ldi	r16, 0x03	; 3
     e8a:	88 0f       	add	r24, r24
     e8c:	99 1f       	adc	r25, r25
     e8e:	0a 95       	dec	r16
     e90:	e1 f7       	brne	.-8      	; 0xe8a <mk_ssd1306_drawChar+0x6a>
     e92:	86 0f       	add	r24, r22
     e94:	97 1f       	adc	r25, r23
     e96:	18 16       	cp	r1, r24
     e98:	19 06       	cpc	r1, r25
     e9a:	0c f0       	brlt	.+2      	; 0xe9e <mk_ssd1306_drawChar+0x7e>
     e9c:	52 c0       	rjmp	.+164    	; 0xf42 <mk_ssd1306_drawChar+0x122>
     e9e:	e5 e0       	ldi	r30, 0x05	; 5
     ea0:	4e 9f       	mul	r20, r30
     ea2:	10 01       	movw	r2, r0
     ea4:	11 24       	eor	r1, r1
     ea6:	25 01       	movw	r4, r10
     ea8:	61 2c       	mov	r6, r1
     eaa:	71 2c       	mov	r7, r1
     eac:	c1 01       	movw	r24, r2
     eae:	8e 52       	subi	r24, 0x2E	; 46
     eb0:	9f 4f       	sbci	r25, 0xFF	; 255
     eb2:	1c 01       	movw	r2, r24
     eb4:	86 2d       	mov	r24, r6
     eb6:	85 30       	cpi	r24, 0x05	; 5
     eb8:	31 f0       	breq	.+12     	; 0xec6 <mk_ssd1306_drawChar+0xa6>
     eba:	f1 01       	movw	r30, r2
     ebc:	e6 0d       	add	r30, r6
     ebe:	f7 1d       	adc	r31, r7
     ec0:	94 91       	lpm	r25, Z
     ec2:	99 83       	std	Y+1, r25	; 0x01
     ec4:	01 c0       	rjmp	.+2      	; 0xec8 <mk_ssd1306_drawChar+0xa8>
     ec6:	19 82       	std	Y+1, r1	; 0x01
     ec8:	46 01       	movw	r8, r12
     eca:	e1 2c       	mov	r14, r1
     ecc:	f1 2c       	mov	r15, r1
     ece:	8a 0d       	add	r24, r10
     ed0:	8c 83       	std	Y+4, r24	; 0x04
     ed2:	a9 81       	ldd	r26, Y+1	; 0x01
     ed4:	a0 ff       	sbrs	r26, 0
     ed6:	06 c0       	rjmp	.+12     	; 0xee4 <mk_ssd1306_drawChar+0xc4>
     ed8:	11 30       	cpi	r17, 0x01	; 1
     eda:	11 f4       	brne	.+4      	; 0xee0 <mk_ssd1306_drawChar+0xc0>
     edc:	4a 81       	ldd	r20, Y+2	; 0x02
     ede:	09 c0       	rjmp	.+18     	; 0xef2 <mk_ssd1306_drawChar+0xd2>
     ee0:	0a 81       	ldd	r16, Y+2	; 0x02
     ee2:	0e c0       	rjmp	.+28     	; 0xf00 <mk_ssd1306_drawChar+0xe0>
     ee4:	bb 81       	ldd	r27, Y+3	; 0x03
     ee6:	ea 81       	ldd	r30, Y+2	; 0x02
     ee8:	be 17       	cp	r27, r30
     eea:	89 f0       	breq	.+34     	; 0xf0e <mk_ssd1306_drawChar+0xee>
     eec:	11 30       	cpi	r17, 0x01	; 1
     eee:	39 f4       	brne	.+14     	; 0xefe <mk_ssd1306_drawChar+0xde>
     ef0:	4b 2f       	mov	r20, r27
     ef2:	6e 2d       	mov	r22, r14
     ef4:	6c 0d       	add	r22, r12
     ef6:	8c 81       	ldd	r24, Y+4	; 0x04
     ef8:	0e 94 a0 19 	call	0x3340	; 0x3340 <LCD_SetPixel>
     efc:	08 c0       	rjmp	.+16     	; 0xf0e <mk_ssd1306_drawChar+0xee>
     efe:	0b 81       	ldd	r16, Y+3	; 0x03
     f00:	2d 81       	ldd	r18, Y+5	; 0x05
     f02:	3e 81       	ldd	r19, Y+6	; 0x06
     f04:	a9 01       	movw	r20, r18
     f06:	b4 01       	movw	r22, r8
     f08:	c2 01       	movw	r24, r4
     f0a:	0e 94 57 05 	call	0xaae	; 0xaae <fillRect>
     f0e:	f9 81       	ldd	r31, Y+1	; 0x01
     f10:	f6 95       	lsr	r31
     f12:	f9 83       	std	Y+1, r31	; 0x01
     f14:	2f ef       	ldi	r18, 0xFF	; 255
     f16:	e2 1a       	sub	r14, r18
     f18:	f2 0a       	sbc	r15, r18
     f1a:	8d 81       	ldd	r24, Y+5	; 0x05
     f1c:	9e 81       	ldd	r25, Y+6	; 0x06
     f1e:	88 0e       	add	r8, r24
     f20:	99 1e       	adc	r9, r25
     f22:	98 e0       	ldi	r25, 0x08	; 8
     f24:	e9 16       	cp	r14, r25
     f26:	f1 04       	cpc	r15, r1
     f28:	a1 f6       	brne	.-88     	; 0xed2 <mk_ssd1306_drawChar+0xb2>
     f2a:	af ef       	ldi	r26, 0xFF	; 255
     f2c:	6a 1a       	sub	r6, r26
     f2e:	7a 0a       	sbc	r7, r26
     f30:	ed 81       	ldd	r30, Y+5	; 0x05
     f32:	fe 81       	ldd	r31, Y+6	; 0x06
     f34:	4e 0e       	add	r4, r30
     f36:	5f 1e       	adc	r5, r31
     f38:	f6 e0       	ldi	r31, 0x06	; 6
     f3a:	6f 16       	cp	r6, r31
     f3c:	71 04       	cpc	r7, r1
     f3e:	09 f0       	breq	.+2      	; 0xf42 <mk_ssd1306_drawChar+0x122>
     f40:	b9 cf       	rjmp	.-142    	; 0xeb4 <mk_ssd1306_drawChar+0x94>
     f42:	26 96       	adiw	r28, 0x06	; 6
     f44:	0f b6       	in	r0, 0x3f	; 63
     f46:	f8 94       	cli
     f48:	de bf       	out	0x3e, r29	; 62
     f4a:	0f be       	out	0x3f, r0	; 63
     f4c:	cd bf       	out	0x3d, r28	; 61
     f4e:	df 91       	pop	r29
     f50:	cf 91       	pop	r28
     f52:	1f 91       	pop	r17
     f54:	0f 91       	pop	r16
     f56:	ff 90       	pop	r15
     f58:	ef 90       	pop	r14
     f5a:	df 90       	pop	r13
     f5c:	cf 90       	pop	r12
     f5e:	bf 90       	pop	r11
     f60:	af 90       	pop	r10
     f62:	9f 90       	pop	r9
     f64:	8f 90       	pop	r8
     f66:	7f 90       	pop	r7
     f68:	6f 90       	pop	r6
     f6a:	5f 90       	pop	r5
     f6c:	4f 90       	pop	r4
     f6e:	3f 90       	pop	r3
     f70:	2f 90       	pop	r2
     f72:	08 95       	ret

00000f74 <mk_ssd1306_puts>:
     f74:	bf 92       	push	r11
     f76:	cf 92       	push	r12
     f78:	df 92       	push	r13
     f7a:	ef 92       	push	r14
     f7c:	ff 92       	push	r15
     f7e:	0f 93       	push	r16
     f80:	1f 93       	push	r17
     f82:	cf 93       	push	r28
     f84:	df 93       	push	r29
     f86:	12 2f       	mov	r17, r18
     f88:	f0 2e       	mov	r15, r16
     f8a:	be 2c       	mov	r11, r14
     f8c:	90 93 63 08 	sts	0x0863, r25
     f90:	80 93 62 08 	sts	0x0862, r24
     f94:	70 93 61 08 	sts	0x0861, r23
     f98:	60 93 60 08 	sts	0x0860, r22
     f9c:	86 e0       	ldi	r24, 0x06	; 6
     f9e:	28 9f       	mul	r18, r24
     fa0:	60 01       	movw	r12, r0
     fa2:	11 24       	eor	r1, r1
     fa4:	ea 01       	movw	r28, r20
     fa6:	49 91       	ld	r20, Y+
     fa8:	44 23       	and	r20, r20
     faa:	c1 f0       	breq	.+48     	; 0xfdc <mk_ssd1306_puts+0x68>
     fac:	60 91 60 08 	lds	r22, 0x0860
     fb0:	70 91 61 08 	lds	r23, 0x0861
     fb4:	e1 2e       	mov	r14, r17
     fb6:	0b 2d       	mov	r16, r11
     fb8:	2f 2d       	mov	r18, r15
     fba:	80 91 62 08 	lds	r24, 0x0862
     fbe:	90 91 63 08 	lds	r25, 0x0863
     fc2:	0e 94 10 07 	call	0xe20	; 0xe20 <mk_ssd1306_drawChar>
     fc6:	80 91 62 08 	lds	r24, 0x0862
     fca:	90 91 63 08 	lds	r25, 0x0863
     fce:	8c 0d       	add	r24, r12
     fd0:	9d 1d       	adc	r25, r13
     fd2:	90 93 63 08 	sts	0x0863, r25
     fd6:	80 93 62 08 	sts	0x0862, r24
     fda:	e5 cf       	rjmp	.-54     	; 0xfa6 <mk_ssd1306_puts+0x32>
     fdc:	df 91       	pop	r29
     fde:	cf 91       	pop	r28
     fe0:	1f 91       	pop	r17
     fe2:	0f 91       	pop	r16
     fe4:	ff 90       	pop	r15
     fe6:	ef 90       	pop	r14
     fe8:	df 90       	pop	r13
     fea:	cf 90       	pop	r12
     fec:	bf 90       	pop	r11
     fee:	08 95       	ret

00000ff0 <DS1W_READLINE>:
     ff0:	91 b3       	in	r25, 0x11	; 17
     ff2:	21 e0       	ldi	r18, 0x01	; 1
     ff4:	30 e0       	ldi	r19, 0x00	; 0
     ff6:	01 c0       	rjmp	.+2      	; 0xffa <DS1W_READLINE+0xa>
     ff8:	22 0f       	add	r18, r18
     ffa:	8a 95       	dec	r24
     ffc:	ea f7       	brpl	.-6      	; 0xff8 <DS1W_READLINE+0x8>
     ffe:	82 2f       	mov	r24, r18
    1000:	80 95       	com	r24
    1002:	89 23       	and	r24, r25
    1004:	81 bb       	out	0x11, r24	; 17
    1006:	90 b3       	in	r25, 0x10	; 16
    1008:	92 23       	and	r25, r18
    100a:	81 e0       	ldi	r24, 0x01	; 1
    100c:	09 f4       	brne	.+2      	; 0x1010 <DS1W_READLINE+0x20>
    100e:	80 e0       	ldi	r24, 0x00	; 0
    1010:	08 95       	ret

00001012 <DS1W_SET_HIGH>:
    1012:	92 b3       	in	r25, 0x12	; 18
    1014:	21 e0       	ldi	r18, 0x01	; 1
    1016:	30 e0       	ldi	r19, 0x00	; 0
    1018:	01 c0       	rjmp	.+2      	; 0x101c <DS1W_SET_HIGH+0xa>
    101a:	22 0f       	add	r18, r18
    101c:	8a 95       	dec	r24
    101e:	ea f7       	brpl	.-6      	; 0x101a <DS1W_SET_HIGH+0x8>
    1020:	92 2b       	or	r25, r18
    1022:	92 bb       	out	0x12, r25	; 18
    1024:	81 b3       	in	r24, 0x11	; 17
    1026:	20 95       	com	r18
    1028:	28 23       	and	r18, r24
    102a:	21 bb       	out	0x11, r18	; 17
    102c:	08 95       	ret

0000102e <DS1W_SET_LOW>:
    102e:	92 b3       	in	r25, 0x12	; 18
    1030:	21 e0       	ldi	r18, 0x01	; 1
    1032:	30 e0       	ldi	r19, 0x00	; 0
    1034:	01 c0       	rjmp	.+2      	; 0x1038 <DS1W_SET_LOW+0xa>
    1036:	22 0f       	add	r18, r18
    1038:	8a 95       	dec	r24
    103a:	ea f7       	brpl	.-6      	; 0x1036 <DS1W_SET_LOW+0x8>
    103c:	82 2f       	mov	r24, r18
    103e:	80 95       	com	r24
    1040:	89 23       	and	r24, r25
    1042:	82 bb       	out	0x12, r24	; 18
    1044:	81 b3       	in	r24, 0x11	; 17
    1046:	82 2b       	or	r24, r18
    1048:	81 bb       	out	0x11, r24	; 17
    104a:	08 95       	ret

0000104c <DS1W_Reset>:
    104c:	cf 93       	push	r28
    104e:	c8 2f       	mov	r28, r24
    1050:	0e 94 17 08 	call	0x102e	; 0x102e <DS1W_SET_LOW>
    1054:	8f ef       	ldi	r24, 0xFF	; 255
    1056:	98 e0       	ldi	r25, 0x08	; 8
    1058:	01 97       	sbiw	r24, 0x01	; 1
    105a:	f1 f7       	brne	.-4      	; 0x1058 <DS1W_Reset+0xc>
    105c:	00 c0       	rjmp	.+0      	; 0x105e <DS1W_Reset+0x12>
    105e:	00 00       	nop
    1060:	8c 2f       	mov	r24, r28
    1062:	0e 94 09 08 	call	0x1012	; 0x1012 <DS1W_SET_HIGH>
    1066:	e2 e2       	ldi	r30, 0x22	; 34
    1068:	f1 e0       	ldi	r31, 0x01	; 1
    106a:	31 97       	sbiw	r30, 0x01	; 1
    106c:	f1 f7       	brne	.-4      	; 0x106a <DS1W_Reset+0x1e>
    106e:	00 00       	nop
    1070:	8c 2f       	mov	r24, r28
    1072:	0e 94 f8 07 	call	0xff0	; 0xff0 <DS1W_READLINE>
    1076:	e5 e7       	ldi	r30, 0x75	; 117
    1078:	f8 e0       	ldi	r31, 0x08	; 8
    107a:	31 97       	sbiw	r30, 0x01	; 1
    107c:	f1 f7       	brne	.-4      	; 0x107a <DS1W_Reset+0x2e>
    107e:	00 c0       	rjmp	.+0      	; 0x1080 <DS1W_Reset+0x34>
    1080:	00 00       	nop
    1082:	81 11       	cpse	r24, r1
    1084:	06 c0       	rjmp	.+12     	; 0x1092 <DS1W_Reset+0x46>
    1086:	8c 2f       	mov	r24, r28
    1088:	0e 94 f8 07 	call	0xff0	; 0xff0 <DS1W_READLINE>
    108c:	91 e0       	ldi	r25, 0x01	; 1
    108e:	81 11       	cpse	r24, r1
    1090:	01 c0       	rjmp	.+2      	; 0x1094 <DS1W_Reset+0x48>
    1092:	90 e0       	ldi	r25, 0x00	; 0
    1094:	89 2f       	mov	r24, r25
    1096:	cf 91       	pop	r28
    1098:	08 95       	ret

0000109a <DS1W_SendBit>:
    109a:	1f 93       	push	r17
    109c:	cf 93       	push	r28
    109e:	df 93       	push	r29
    10a0:	1f 92       	push	r1
    10a2:	cd b7       	in	r28, 0x3d	; 61
    10a4:	de b7       	in	r29, 0x3e	; 62
    10a6:	18 2f       	mov	r17, r24
    10a8:	69 83       	std	Y+1, r22	; 0x01
    10aa:	0e 94 17 08 	call	0x102e	; 0x102e <DS1W_SET_LOW>
    10ae:	81 e3       	ldi	r24, 0x31	; 49
    10b0:	8a 95       	dec	r24
    10b2:	f1 f7       	brne	.-4      	; 0x10b0 <DS1W_SendBit+0x16>
    10b4:	00 00       	nop
    10b6:	69 81       	ldd	r22, Y+1	; 0x01
    10b8:	61 30       	cpi	r22, 0x01	; 1
    10ba:	19 f4       	brne	.+6      	; 0x10c2 <DS1W_SendBit+0x28>
    10bc:	81 2f       	mov	r24, r17
    10be:	0e 94 09 08 	call	0x1012	; 0x1012 <DS1W_SET_HIGH>
    10c2:	e0 e7       	ldi	r30, 0x70	; 112
    10c4:	f1 e0       	ldi	r31, 0x01	; 1
    10c6:	31 97       	sbiw	r30, 0x01	; 1
    10c8:	f1 f7       	brne	.-4      	; 0x10c6 <DS1W_SendBit+0x2c>
    10ca:	00 c0       	rjmp	.+0      	; 0x10cc <DS1W_SendBit+0x32>
    10cc:	81 2f       	mov	r24, r17
    10ce:	0f 90       	pop	r0
    10d0:	df 91       	pop	r29
    10d2:	cf 91       	pop	r28
    10d4:	1f 91       	pop	r17
    10d6:	0c 94 09 08 	jmp	0x1012	; 0x1012 <DS1W_SET_HIGH>

000010da <DS1W_Read>:
    10da:	cf 93       	push	r28
    10dc:	c8 2f       	mov	r28, r24
    10de:	0e 94 17 08 	call	0x102e	; 0x102e <DS1W_SET_LOW>
    10e2:	81 e3       	ldi	r24, 0x31	; 49
    10e4:	8a 95       	dec	r24
    10e6:	f1 f7       	brne	.-4      	; 0x10e4 <DS1W_Read+0xa>
    10e8:	00 00       	nop
    10ea:	8c 2f       	mov	r24, r28
    10ec:	0e 94 09 08 	call	0x1012	; 0x1012 <DS1W_SET_HIGH>
    10f0:	8c e5       	ldi	r24, 0x5C	; 92
    10f2:	8a 95       	dec	r24
    10f4:	f1 f7       	brne	.-4      	; 0x10f2 <DS1W_Read+0x18>
    10f6:	00 00       	nop
    10f8:	8c 2f       	mov	r24, r28
    10fa:	0e 94 f8 07 	call	0xff0	; 0xff0 <DS1W_READLINE>
    10fe:	91 e0       	ldi	r25, 0x01	; 1
    1100:	81 11       	cpse	r24, r1
    1102:	01 c0       	rjmp	.+2      	; 0x1106 <__stack+0x7>
    1104:	90 e0       	ldi	r25, 0x00	; 0
    1106:	89 2f       	mov	r24, r25
    1108:	cf 91       	pop	r28
    110a:	08 95       	ret

0000110c <DS1W_SendByte>:
    110c:	ff 92       	push	r15
    110e:	0f 93       	push	r16
    1110:	1f 93       	push	r17
    1112:	cf 93       	push	r28
    1114:	df 93       	push	r29
    1116:	f8 2e       	mov	r15, r24
    1118:	c0 e0       	ldi	r28, 0x00	; 0
    111a:	d0 e0       	ldi	r29, 0x00	; 0
    111c:	06 2f       	mov	r16, r22
    111e:	10 e0       	ldi	r17, 0x00	; 0
    1120:	b8 01       	movw	r22, r16
    1122:	0c 2e       	mov	r0, r28
    1124:	02 c0       	rjmp	.+4      	; 0x112a <DS1W_SendByte+0x1e>
    1126:	75 95       	asr	r23
    1128:	67 95       	ror	r22
    112a:	0a 94       	dec	r0
    112c:	e2 f7       	brpl	.-8      	; 0x1126 <DS1W_SendByte+0x1a>
    112e:	61 70       	andi	r22, 0x01	; 1
    1130:	8f 2d       	mov	r24, r15
    1132:	0e 94 4d 08 	call	0x109a	; 0x109a <DS1W_SendBit>
    1136:	21 96       	adiw	r28, 0x01	; 1
    1138:	c8 30       	cpi	r28, 0x08	; 8
    113a:	d1 05       	cpc	r29, r1
    113c:	89 f7       	brne	.-30     	; 0x1120 <DS1W_SendByte+0x14>
    113e:	8c ec       	ldi	r24, 0xCC	; 204
    1140:	91 e0       	ldi	r25, 0x01	; 1
    1142:	01 97       	sbiw	r24, 0x01	; 1
    1144:	f1 f7       	brne	.-4      	; 0x1142 <DS1W_SendByte+0x36>
    1146:	00 c0       	rjmp	.+0      	; 0x1148 <DS1W_SendByte+0x3c>
    1148:	00 00       	nop
    114a:	df 91       	pop	r29
    114c:	cf 91       	pop	r28
    114e:	1f 91       	pop	r17
    1150:	0f 91       	pop	r16
    1152:	ff 90       	pop	r15
    1154:	08 95       	ret

00001156 <DS1W_ReadByte>:
    1156:	ef 92       	push	r14
    1158:	ff 92       	push	r15
    115a:	0f 93       	push	r16
    115c:	1f 93       	push	r17
    115e:	cf 93       	push	r28
    1160:	df 93       	push	r29
    1162:	e8 2e       	mov	r14, r24
    1164:	c0 e0       	ldi	r28, 0x00	; 0
    1166:	d0 e0       	ldi	r29, 0x00	; 0
    1168:	f1 2c       	mov	r15, r1
    116a:	01 e0       	ldi	r16, 0x01	; 1
    116c:	10 e0       	ldi	r17, 0x00	; 0
    116e:	8e 2d       	mov	r24, r14
    1170:	0e 94 6d 08 	call	0x10da	; 0x10da <DS1W_Read>
    1174:	88 23       	and	r24, r24
    1176:	39 f0       	breq	.+14     	; 0x1186 <DS1W_ReadByte+0x30>
    1178:	98 01       	movw	r18, r16
    117a:	0c 2e       	mov	r0, r28
    117c:	01 c0       	rjmp	.+2      	; 0x1180 <DS1W_ReadByte+0x2a>
    117e:	22 0f       	add	r18, r18
    1180:	0a 94       	dec	r0
    1182:	ea f7       	brpl	.-6      	; 0x117e <DS1W_ReadByte+0x28>
    1184:	f2 2a       	or	r15, r18
    1186:	8c e5       	ldi	r24, 0x5C	; 92
    1188:	8a 95       	dec	r24
    118a:	f1 f7       	brne	.-4      	; 0x1188 <DS1W_ReadByte+0x32>
    118c:	00 00       	nop
    118e:	21 96       	adiw	r28, 0x01	; 1
    1190:	c8 30       	cpi	r28, 0x08	; 8
    1192:	d1 05       	cpc	r29, r1
    1194:	61 f7       	brne	.-40     	; 0x116e <DS1W_ReadByte+0x18>
    1196:	8f 2d       	mov	r24, r15
    1198:	df 91       	pop	r29
    119a:	cf 91       	pop	r28
    119c:	1f 91       	pop	r17
    119e:	0f 91       	pop	r16
    11a0:	ff 90       	pop	r15
    11a2:	ef 90       	pop	r14
    11a4:	08 95       	ret

000011a6 <calcrc8>:
    11a6:	50 e0       	ldi	r21, 0x00	; 0
    11a8:	40 e0       	ldi	r20, 0x00	; 0
    11aa:	ec e8       	ldi	r30, 0x8C	; 140
    11ac:	25 2f       	mov	r18, r21
    11ae:	30 e0       	ldi	r19, 0x00	; 0
    11b0:	26 17       	cp	r18, r22
    11b2:	37 07       	cpc	r19, r23
    11b4:	7c f4       	brge	.+30     	; 0x11d4 <calcrc8+0x2e>
    11b6:	dc 01       	movw	r26, r24
    11b8:	a2 0f       	add	r26, r18
    11ba:	b3 1f       	adc	r27, r19
    11bc:	3c 91       	ld	r19, X
    11be:	28 e0       	ldi	r18, 0x08	; 8
    11c0:	f4 2f       	mov	r31, r20
    11c2:	f3 27       	eor	r31, r19
    11c4:	46 95       	lsr	r20
    11c6:	36 95       	lsr	r19
    11c8:	f0 fd       	sbrc	r31, 0
    11ca:	4e 27       	eor	r20, r30
    11cc:	21 50       	subi	r18, 0x01	; 1
    11ce:	c1 f7       	brne	.-16     	; 0x11c0 <calcrc8+0x1a>
    11d0:	5f 5f       	subi	r21, 0xFF	; 255
    11d2:	ec cf       	rjmp	.-40     	; 0x11ac <calcrc8+0x6>
    11d4:	84 2f       	mov	r24, r20
    11d6:	08 95       	ret

000011d8 <DS1W_WriteDataToScratchpad>:
    11d8:	ff 92       	push	r15
    11da:	0f 93       	push	r16
    11dc:	1f 93       	push	r17
    11de:	cf 93       	push	r28
    11e0:	df 93       	push	r29
    11e2:	18 2f       	mov	r17, r24
    11e4:	eb 01       	movw	r28, r22
    11e6:	f4 2e       	mov	r15, r20
    11e8:	05 2f       	mov	r16, r21
    11ea:	0e 94 26 08 	call	0x104c	; 0x104c <DS1W_Reset>
    11ee:	88 23       	and	r24, r24
    11f0:	09 f1       	breq	.+66     	; 0x1234 <DS1W_WriteDataToScratchpad+0x5c>
    11f2:	6c ec       	ldi	r22, 0xCC	; 204
    11f4:	81 2f       	mov	r24, r17
    11f6:	0e 94 86 08 	call	0x110c	; 0x110c <DS1W_SendByte>
    11fa:	6f e0       	ldi	r22, 0x0F	; 15
    11fc:	81 2f       	mov	r24, r17
    11fe:	0e 94 86 08 	call	0x110c	; 0x110c <DS1W_SendByte>
    1202:	68 81       	ld	r22, Y
    1204:	81 2f       	mov	r24, r17
    1206:	0e 94 86 08 	call	0x110c	; 0x110c <DS1W_SendByte>
    120a:	69 81       	ldd	r22, Y+1	; 0x01
    120c:	81 2f       	mov	r24, r17
    120e:	0e 94 86 08 	call	0x110c	; 0x110c <DS1W_SendByte>
    1212:	cf 2d       	mov	r28, r15
    1214:	d0 2f       	mov	r29, r16
    1216:	08 e0       	ldi	r16, 0x08	; 8
    1218:	69 91       	ld	r22, Y+
    121a:	81 2f       	mov	r24, r17
    121c:	0e 94 86 08 	call	0x110c	; 0x110c <DS1W_SendByte>
    1220:	01 50       	subi	r16, 0x01	; 1
    1222:	d1 f7       	brne	.-12     	; 0x1218 <DS1W_WriteDataToScratchpad+0x40>
    1224:	81 2f       	mov	r24, r17
    1226:	0e 94 ab 08 	call	0x1156	; 0x1156 <DS1W_ReadByte>
    122a:	81 2f       	mov	r24, r17
    122c:	0e 94 ab 08 	call	0x1156	; 0x1156 <DS1W_ReadByte>
    1230:	81 e0       	ldi	r24, 0x01	; 1
    1232:	01 c0       	rjmp	.+2      	; 0x1236 <DS1W_WriteDataToScratchpad+0x5e>
    1234:	8a e0       	ldi	r24, 0x0A	; 10
    1236:	df 91       	pop	r29
    1238:	cf 91       	pop	r28
    123a:	1f 91       	pop	r17
    123c:	0f 91       	pop	r16
    123e:	ff 90       	pop	r15
    1240:	08 95       	ret

00001242 <DS1W_ReadDataFromScratchpad>:
    1242:	ff 92       	push	r15
    1244:	0f 93       	push	r16
    1246:	1f 93       	push	r17
    1248:	cf 93       	push	r28
    124a:	df 93       	push	r29
    124c:	18 2f       	mov	r17, r24
    124e:	06 2f       	mov	r16, r22
    1250:	f7 2e       	mov	r15, r23
    1252:	0e 94 26 08 	call	0x104c	; 0x104c <DS1W_Reset>
    1256:	88 23       	and	r24, r24
    1258:	91 f0       	breq	.+36     	; 0x127e <DS1W_ReadDataFromScratchpad+0x3c>
    125a:	6c ec       	ldi	r22, 0xCC	; 204
    125c:	81 2f       	mov	r24, r17
    125e:	0e 94 86 08 	call	0x110c	; 0x110c <DS1W_SendByte>
    1262:	6a ea       	ldi	r22, 0xAA	; 170
    1264:	81 2f       	mov	r24, r17
    1266:	0e 94 86 08 	call	0x110c	; 0x110c <DS1W_SendByte>
    126a:	c0 2f       	mov	r28, r16
    126c:	df 2d       	mov	r29, r15
    126e:	0d e0       	ldi	r16, 0x0D	; 13
    1270:	81 2f       	mov	r24, r17
    1272:	0e 94 ab 08 	call	0x1156	; 0x1156 <DS1W_ReadByte>
    1276:	89 93       	st	Y+, r24
    1278:	01 50       	subi	r16, 0x01	; 1
    127a:	d1 f7       	brne	.-12     	; 0x1270 <DS1W_ReadDataFromScratchpad+0x2e>
    127c:	02 c0       	rjmp	.+4      	; 0x1282 <DS1W_ReadDataFromScratchpad+0x40>
    127e:	8a e0       	ldi	r24, 0x0A	; 10
    1280:	01 c0       	rjmp	.+2      	; 0x1284 <DS1W_ReadDataFromScratchpad+0x42>
    1282:	81 e0       	ldi	r24, 0x01	; 1
    1284:	df 91       	pop	r29
    1286:	cf 91       	pop	r28
    1288:	1f 91       	pop	r17
    128a:	0f 91       	pop	r16
    128c:	ff 90       	pop	r15
    128e:	08 95       	ret

00001290 <DS1W_CopyScratchpadToMemory>:
    1290:	ff 92       	push	r15
    1292:	0f 93       	push	r16
    1294:	1f 93       	push	r17
    1296:	cf 93       	push	r28
    1298:	df 93       	push	r29
    129a:	18 2f       	mov	r17, r24
    129c:	06 2f       	mov	r16, r22
    129e:	f7 2e       	mov	r15, r23
    12a0:	0e 94 26 08 	call	0x104c	; 0x104c <DS1W_Reset>
    12a4:	88 23       	and	r24, r24
    12a6:	01 f1       	breq	.+64     	; 0x12e8 <DS1W_CopyScratchpadToMemory+0x58>
    12a8:	6c ec       	ldi	r22, 0xCC	; 204
    12aa:	81 2f       	mov	r24, r17
    12ac:	0e 94 86 08 	call	0x110c	; 0x110c <DS1W_SendByte>
    12b0:	65 e5       	ldi	r22, 0x55	; 85
    12b2:	81 2f       	mov	r24, r17
    12b4:	0e 94 86 08 	call	0x110c	; 0x110c <DS1W_SendByte>
    12b8:	c0 2f       	mov	r28, r16
    12ba:	df 2d       	mov	r29, r15
    12bc:	03 e0       	ldi	r16, 0x03	; 3
    12be:	69 91       	ld	r22, Y+
    12c0:	81 2f       	mov	r24, r17
    12c2:	0e 94 86 08 	call	0x110c	; 0x110c <DS1W_SendByte>
    12c6:	01 50       	subi	r16, 0x01	; 1
    12c8:	d1 f7       	brne	.-12     	; 0x12be <DS1W_CopyScratchpadToMemory+0x2e>
    12ca:	8f ef       	ldi	r24, 0xFF	; 255
    12cc:	99 ee       	ldi	r25, 0xE9	; 233
    12ce:	01 97       	sbiw	r24, 0x01	; 1
    12d0:	f1 f7       	brne	.-4      	; 0x12ce <DS1W_CopyScratchpadToMemory+0x3e>
    12d2:	00 c0       	rjmp	.+0      	; 0x12d4 <DS1W_CopyScratchpadToMemory+0x44>
    12d4:	00 00       	nop
    12d6:	81 2f       	mov	r24, r17
    12d8:	0e 94 ab 08 	call	0x1156	; 0x1156 <DS1W_ReadByte>
    12dc:	8a 3a       	cpi	r24, 0xAA	; 170
    12de:	11 f4       	brne	.+4      	; 0x12e4 <DS1W_CopyScratchpadToMemory+0x54>
    12e0:	81 e0       	ldi	r24, 0x01	; 1
    12e2:	03 c0       	rjmp	.+6      	; 0x12ea <DS1W_CopyScratchpadToMemory+0x5a>
    12e4:	8c e0       	ldi	r24, 0x0C	; 12
    12e6:	01 c0       	rjmp	.+2      	; 0x12ea <DS1W_CopyScratchpadToMemory+0x5a>
    12e8:	8a e0       	ldi	r24, 0x0A	; 10
    12ea:	df 91       	pop	r29
    12ec:	cf 91       	pop	r28
    12ee:	1f 91       	pop	r17
    12f0:	0f 91       	pop	r16
    12f2:	ff 90       	pop	r15
    12f4:	08 95       	ret

000012f6 <DS1W_ReadDataFromMemory>:
    12f6:	df 92       	push	r13
    12f8:	ef 92       	push	r14
    12fa:	ff 92       	push	r15
    12fc:	0f 93       	push	r16
    12fe:	1f 93       	push	r17
    1300:	cf 93       	push	r28
    1302:	df 93       	push	r29
    1304:	18 2f       	mov	r17, r24
    1306:	eb 01       	movw	r28, r22
    1308:	04 2f       	mov	r16, r20
    130a:	e5 2e       	mov	r14, r21
    130c:	f2 2e       	mov	r15, r18
    130e:	0e 94 26 08 	call	0x104c	; 0x104c <DS1W_Reset>
    1312:	88 23       	and	r24, r24
    1314:	f1 f0       	breq	.+60     	; 0x1352 <DS1W_ReadDataFromMemory+0x5c>
    1316:	6c ec       	ldi	r22, 0xCC	; 204
    1318:	81 2f       	mov	r24, r17
    131a:	0e 94 86 08 	call	0x110c	; 0x110c <DS1W_SendByte>
    131e:	60 ef       	ldi	r22, 0xF0	; 240
    1320:	81 2f       	mov	r24, r17
    1322:	0e 94 86 08 	call	0x110c	; 0x110c <DS1W_SendByte>
    1326:	68 81       	ld	r22, Y
    1328:	81 2f       	mov	r24, r17
    132a:	0e 94 86 08 	call	0x110c	; 0x110c <DS1W_SendByte>
    132e:	69 81       	ldd	r22, Y+1	; 0x01
    1330:	81 2f       	mov	r24, r17
    1332:	0e 94 86 08 	call	0x110c	; 0x110c <DS1W_SendByte>
    1336:	d0 2e       	mov	r13, r16
    1338:	c0 2f       	mov	r28, r16
    133a:	de 2d       	mov	r29, r14
    133c:	8c 2f       	mov	r24, r28
    133e:	8d 19       	sub	r24, r13
    1340:	8f 15       	cp	r24, r15
    1342:	28 f4       	brcc	.+10     	; 0x134e <DS1W_ReadDataFromMemory+0x58>
    1344:	81 2f       	mov	r24, r17
    1346:	0e 94 ab 08 	call	0x1156	; 0x1156 <DS1W_ReadByte>
    134a:	89 93       	st	Y+, r24
    134c:	f7 cf       	rjmp	.-18     	; 0x133c <DS1W_ReadDataFromMemory+0x46>
    134e:	81 e0       	ldi	r24, 0x01	; 1
    1350:	01 c0       	rjmp	.+2      	; 0x1354 <DS1W_ReadDataFromMemory+0x5e>
    1352:	8a e0       	ldi	r24, 0x0A	; 10
    1354:	df 91       	pop	r29
    1356:	cf 91       	pop	r28
    1358:	1f 91       	pop	r17
    135a:	0f 91       	pop	r16
    135c:	ff 90       	pop	r15
    135e:	ef 90       	pop	r14
    1360:	df 90       	pop	r13
    1362:	08 95       	ret

00001364 <DS1W_ReadSerialAndChackCRC>:
    1364:	cf 92       	push	r12
    1366:	df 92       	push	r13
    1368:	ef 92       	push	r14
    136a:	ff 92       	push	r15
    136c:	0f 93       	push	r16
    136e:	1f 93       	push	r17
    1370:	cf 93       	push	r28
    1372:	df 93       	push	r29
    1374:	cd b7       	in	r28, 0x3d	; 61
    1376:	de b7       	in	r29, 0x3e	; 62
    1378:	29 97       	sbiw	r28, 0x09	; 9
    137a:	0f b6       	in	r0, 0x3f	; 63
    137c:	f8 94       	cli
    137e:	de bf       	out	0x3e, r29	; 62
    1380:	0f be       	out	0x3f, r0	; 63
    1382:	cd bf       	out	0x3d, r28	; 61
    1384:	d8 2e       	mov	r13, r24
    1386:	0e 94 26 08 	call	0x104c	; 0x104c <DS1W_Reset>
    138a:	88 23       	and	r24, r24
    138c:	11 f1       	breq	.+68     	; 0x13d2 <DS1W_ReadSerialAndChackCRC+0x6e>
    138e:	63 e3       	ldi	r22, 0x33	; 51
    1390:	8d 2d       	mov	r24, r13
    1392:	0e 94 86 08 	call	0x110c	; 0x110c <DS1W_SendByte>
    1396:	8e 01       	movw	r16, r28
    1398:	0f 5f       	subi	r16, 0xFF	; 255
    139a:	1f 4f       	sbci	r17, 0xFF	; 255
    139c:	7e 01       	movw	r14, r28
    139e:	89 e0       	ldi	r24, 0x09	; 9
    13a0:	e8 0e       	add	r14, r24
    13a2:	f1 1c       	adc	r15, r1
    13a4:	c0 2e       	mov	r12, r16
    13a6:	91 2f       	mov	r25, r17
    13a8:	8d 2d       	mov	r24, r13
    13aa:	99 87       	std	Y+9, r25	; 0x09
    13ac:	0e 94 ab 08 	call	0x1156	; 0x1156 <DS1W_ReadByte>
    13b0:	f8 01       	movw	r30, r16
    13b2:	81 93       	st	Z+, r24
    13b4:	8f 01       	movw	r16, r30
    13b6:	99 85       	ldd	r25, Y+9	; 0x09
    13b8:	ee 15       	cp	r30, r14
    13ba:	ff 05       	cpc	r31, r15
    13bc:	a9 f7       	brne	.-22     	; 0x13a8 <DS1W_ReadSerialAndChackCRC+0x44>
    13be:	67 e0       	ldi	r22, 0x07	; 7
    13c0:	70 e0       	ldi	r23, 0x00	; 0
    13c2:	8c 2d       	mov	r24, r12
    13c4:	0e 94 d3 08 	call	0x11a6	; 0x11a6 <calcrc8>
    13c8:	98 85       	ldd	r25, Y+8	; 0x08
    13ca:	98 13       	cpse	r25, r24
    13cc:	04 c0       	rjmp	.+8      	; 0x13d6 <DS1W_ReadSerialAndChackCRC+0x72>
    13ce:	81 e0       	ldi	r24, 0x01	; 1
    13d0:	03 c0       	rjmp	.+6      	; 0x13d8 <DS1W_ReadSerialAndChackCRC+0x74>
    13d2:	8a e0       	ldi	r24, 0x0A	; 10
    13d4:	01 c0       	rjmp	.+2      	; 0x13d8 <DS1W_ReadSerialAndChackCRC+0x74>
    13d6:	8b e0       	ldi	r24, 0x0B	; 11
    13d8:	29 96       	adiw	r28, 0x09	; 9
    13da:	0f b6       	in	r0, 0x3f	; 63
    13dc:	f8 94       	cli
    13de:	de bf       	out	0x3e, r29	; 62
    13e0:	0f be       	out	0x3f, r0	; 63
    13e2:	cd bf       	out	0x3d, r28	; 61
    13e4:	df 91       	pop	r29
    13e6:	cf 91       	pop	r28
    13e8:	1f 91       	pop	r17
    13ea:	0f 91       	pop	r16
    13ec:	ff 90       	pop	r15
    13ee:	ef 90       	pop	r14
    13f0:	df 90       	pop	r13
    13f2:	cf 90       	pop	r12
    13f4:	08 95       	ret

000013f6 <DS1W_TestHTRWriteAndReadData>:
    13f6:	9f 92       	push	r9
    13f8:	af 92       	push	r10
    13fa:	bf 92       	push	r11
    13fc:	cf 92       	push	r12
    13fe:	df 92       	push	r13
    1400:	ef 92       	push	r14
    1402:	ff 92       	push	r15
    1404:	0f 93       	push	r16
    1406:	1f 93       	push	r17
    1408:	cf 93       	push	r28
    140a:	df 93       	push	r29
    140c:	cd b7       	in	r28, 0x3d	; 61
    140e:	de b7       	in	r29, 0x3e	; 62
    1410:	a1 97       	sbiw	r28, 0x21	; 33
    1412:	0f b6       	in	r0, 0x3f	; 63
    1414:	f8 94       	cli
    1416:	de bf       	out	0x3e, r29	; 62
    1418:	0f be       	out	0x3f, r0	; 63
    141a:	cd bf       	out	0x3d, r28	; 61
    141c:	98 2e       	mov	r9, r24
    141e:	1e 8e       	std	Y+30, r1	; 0x1e
    1420:	1f 8e       	std	Y+31, r1	; 0x1f
    1422:	18 a2       	std	Y+32, r1	; 0x20
    1424:	88 e0       	ldi	r24, 0x08	; 8
    1426:	eb e0       	ldi	r30, 0x0B	; 11
    1428:	f1 e0       	ldi	r31, 0x01	; 1
    142a:	de 01       	movw	r26, r28
    142c:	56 96       	adiw	r26, 0x16	; 22
    142e:	01 90       	ld	r0, Z+
    1430:	0d 92       	st	X+, r0
    1432:	8a 95       	dec	r24
    1434:	e1 f7       	brne	.-8      	; 0x142e <DS1W_TestHTRWriteAndReadData+0x38>
    1436:	5e 01       	movw	r10, r28
    1438:	86 e1       	ldi	r24, 0x16	; 22
    143a:	a8 0e       	add	r10, r24
    143c:	b1 1c       	adc	r11, r1
    143e:	6e 01       	movw	r12, r28
    1440:	ae e1       	ldi	r26, 0x1E	; 30
    1442:	ca 0e       	add	r12, r26
    1444:	d1 1c       	adc	r13, r1
    1446:	a5 01       	movw	r20, r10
    1448:	b6 01       	movw	r22, r12
    144a:	89 2d       	mov	r24, r9
    144c:	0e 94 ec 08 	call	0x11d8	; 0x11d8 <DS1W_WriteDataToScratchpad>
    1450:	81 30       	cpi	r24, 0x01	; 1
    1452:	09 f0       	breq	.+2      	; 0x1456 <DS1W_TestHTRWriteAndReadData+0x60>
    1454:	5e c0       	rjmp	.+188    	; 0x1512 <DS1W_TestHTRWriteAndReadData+0x11c>
    1456:	8e 01       	movw	r16, r28
    1458:	0f 5f       	subi	r16, 0xFF	; 255
    145a:	1f 4f       	sbci	r17, 0xFF	; 255
    145c:	8d e0       	ldi	r24, 0x0D	; 13
    145e:	f8 01       	movw	r30, r16
    1460:	11 92       	st	Z+, r1
    1462:	8a 95       	dec	r24
    1464:	e9 f7       	brne	.-6      	; 0x1460 <DS1W_TestHTRWriteAndReadData+0x6a>
    1466:	b8 01       	movw	r22, r16
    1468:	89 2d       	mov	r24, r9
    146a:	0e 94 21 09 	call	0x1242	; 0x1242 <DS1W_ReadDataFromScratchpad>
    146e:	81 30       	cpi	r24, 0x01	; 1
    1470:	09 f0       	breq	.+2      	; 0x1474 <DS1W_TestHTRWriteAndReadData+0x7e>
    1472:	4f c0       	rjmp	.+158    	; 0x1512 <DS1W_TestHTRWriteAndReadData+0x11c>
    1474:	de 01       	movw	r26, r28
    1476:	14 96       	adiw	r26, 0x04	; 4
    1478:	f5 01       	movw	r30, r10
    147a:	21 91       	ld	r18, Z+
    147c:	9d 91       	ld	r25, X+
    147e:	29 13       	cpse	r18, r25
    1480:	8d e0       	ldi	r24, 0x0D	; 13
    1482:	ec 15       	cp	r30, r12
    1484:	fd 05       	cpc	r31, r13
    1486:	c9 f7       	brne	.-14     	; 0x147a <DS1W_TestHTRWriteAndReadData+0x84>
    1488:	81 30       	cpi	r24, 0x01	; 1
    148a:	09 f0       	breq	.+2      	; 0x148e <DS1W_TestHTRWriteAndReadData+0x98>
    148c:	42 c0       	rjmp	.+132    	; 0x1512 <DS1W_TestHTRWriteAndReadData+0x11c>
    148e:	87 e0       	ldi	r24, 0x07	; 7
    1490:	88 a3       	std	Y+32, r24	; 0x20
    1492:	b6 01       	movw	r22, r12
    1494:	89 2d       	mov	r24, r9
    1496:	0e 94 48 09 	call	0x1290	; 0x1290 <DS1W_CopyScratchpadToMemory>
    149a:	81 30       	cpi	r24, 0x01	; 1
    149c:	d1 f5       	brne	.+116    	; 0x1512 <DS1W_TestHTRWriteAndReadData+0x11c>
    149e:	28 e0       	ldi	r18, 0x08	; 8
    14a0:	a8 01       	movw	r20, r16
    14a2:	b6 01       	movw	r22, r12
    14a4:	89 2d       	mov	r24, r9
    14a6:	0e 94 7b 09 	call	0x12f6	; 0x12f6 <DS1W_ReadDataFromMemory>
    14aa:	81 30       	cpi	r24, 0x01	; 1
    14ac:	91 f5       	brne	.+100    	; 0x1512 <DS1W_TestHTRWriteAndReadData+0x11c>
    14ae:	f8 01       	movw	r30, r16
    14b0:	75 01       	movw	r14, r10
    14b2:	d7 01       	movw	r26, r14
    14b4:	2d 91       	ld	r18, X+
    14b6:	7d 01       	movw	r14, r26
    14b8:	91 91       	ld	r25, Z+
    14ba:	29 13       	cpse	r18, r25
    14bc:	8e e0       	ldi	r24, 0x0E	; 14
    14be:	ec 14       	cp	r14, r12
    14c0:	fd 04       	cpc	r15, r13
    14c2:	b9 f7       	brne	.-18     	; 0x14b2 <DS1W_TestHTRWriteAndReadData+0xbc>
    14c4:	98 2f       	mov	r25, r24
    14c6:	81 30       	cpi	r24, 0x01	; 1
    14c8:	21 f5       	brne	.+72     	; 0x1512 <DS1W_TestHTRWriteAndReadData+0x11c>
    14ca:	6e 01       	movw	r12, r28
    14cc:	be e0       	ldi	r27, 0x0E	; 14
    14ce:	cb 0e       	add	r12, r27
    14d0:	d1 1c       	adc	r13, r1
    14d2:	88 e0       	ldi	r24, 0x08	; 8
    14d4:	f6 01       	movw	r30, r12
    14d6:	11 92       	st	Z+, r1
    14d8:	8a 95       	dec	r24
    14da:	e9 f7       	brne	.-6      	; 0x14d6 <DS1W_TestHTRWriteAndReadData+0xe0>
    14dc:	a6 01       	movw	r20, r12
    14de:	b7 01       	movw	r22, r14
    14e0:	89 2d       	mov	r24, r9
    14e2:	99 a3       	std	Y+33, r25	; 0x21
    14e4:	0e 94 ec 08 	call	0x11d8	; 0x11d8 <DS1W_WriteDataToScratchpad>
    14e8:	b7 01       	movw	r22, r14
    14ea:	89 2d       	mov	r24, r9
    14ec:	0e 94 48 09 	call	0x1290	; 0x1290 <DS1W_CopyScratchpadToMemory>
    14f0:	28 e0       	ldi	r18, 0x08	; 8
    14f2:	a8 01       	movw	r20, r16
    14f4:	b7 01       	movw	r22, r14
    14f6:	89 2d       	mov	r24, r9
    14f8:	0e 94 7b 09 	call	0x12f6	; 0x12f6 <DS1W_ReadDataFromMemory>
    14fc:	f6 01       	movw	r30, r12
    14fe:	d8 01       	movw	r26, r16
    1500:	99 a1       	ldd	r25, Y+33	; 0x21
    1502:	21 91       	ld	r18, Z+
    1504:	8d 91       	ld	r24, X+
    1506:	28 13       	cpse	r18, r24
    1508:	9e e0       	ldi	r25, 0x0E	; 14
    150a:	ea 15       	cp	r30, r10
    150c:	fb 05       	cpc	r31, r11
    150e:	c9 f7       	brne	.-14     	; 0x1502 <DS1W_TestHTRWriteAndReadData+0x10c>
    1510:	89 2f       	mov	r24, r25
    1512:	a1 96       	adiw	r28, 0x21	; 33
    1514:	0f b6       	in	r0, 0x3f	; 63
    1516:	f8 94       	cli
    1518:	de bf       	out	0x3e, r29	; 62
    151a:	0f be       	out	0x3f, r0	; 63
    151c:	cd bf       	out	0x3d, r28	; 61
    151e:	df 91       	pop	r29
    1520:	cf 91       	pop	r28
    1522:	1f 91       	pop	r17
    1524:	0f 91       	pop	r16
    1526:	ff 90       	pop	r15
    1528:	ef 90       	pop	r14
    152a:	df 90       	pop	r13
    152c:	cf 90       	pop	r12
    152e:	bf 90       	pop	r11
    1530:	af 90       	pop	r10
    1532:	9f 90       	pop	r9
    1534:	08 95       	ret

00001536 <init_ADC>:
    1536:	37 9a       	sbi	0x06, 7	; 6
    1538:	86 b1       	in	r24, 0x06	; 6
    153a:	87 60       	ori	r24, 0x07	; 7
    153c:	86 b9       	out	0x06, r24	; 6
    153e:	3e 9a       	sbi	0x07, 6	; 7
    1540:	08 95       	ret

00001542 <pomiar>:
    1542:	97 b1       	in	r25, 0x07	; 7
    1544:	98 7f       	andi	r25, 0xF8	; 248
    1546:	98 2b       	or	r25, r24
    1548:	97 b9       	out	0x07, r25	; 7
    154a:	36 9a       	sbi	0x06, 6	; 6
    154c:	34 9b       	sbis	0x06, 4	; 6
    154e:	fe cf       	rjmp	.-4      	; 0x154c <pomiar+0xa>
    1550:	84 b1       	in	r24, 0x04	; 4
    1552:	25 b1       	in	r18, 0x05	; 5
    1554:	34 9a       	sbi	0x06, 4	; 6
    1556:	90 e0       	ldi	r25, 0x00	; 0
    1558:	92 2b       	or	r25, r18
    155a:	08 95       	ret

0000155c <Licz_Srednia>:
    155c:	cf 92       	push	r12
    155e:	df 92       	push	r13
    1560:	ef 92       	push	r14
    1562:	ff 92       	push	r15
    1564:	cf 93       	push	r28
    1566:	df 93       	push	r29
    1568:	ec 01       	movw	r28, r24
    156a:	86 2f       	mov	r24, r22
    156c:	ca 80       	ldd	r12, Y+2	; 0x02
    156e:	db 80       	ldd	r13, Y+3	; 0x03
    1570:	ec 80       	ldd	r14, Y+4	; 0x04
    1572:	fd 80       	ldd	r15, Y+5	; 0x05
    1574:	93 e0       	ldi	r25, 0x03	; 3
    1576:	cc 0c       	add	r12, r12
    1578:	dd 1c       	adc	r13, r13
    157a:	ee 1c       	adc	r14, r14
    157c:	ff 1c       	adc	r15, r15
    157e:	9a 95       	dec	r25
    1580:	d1 f7       	brne	.-12     	; 0x1576 <Licz_Srednia+0x1a>
    1582:	ca 82       	std	Y+2, r12	; 0x02
    1584:	db 82       	std	Y+3, r13	; 0x03
    1586:	ec 82       	std	Y+4, r14	; 0x04
    1588:	fd 82       	std	Y+5, r15	; 0x05
    158a:	0e 94 a1 0a 	call	0x1542	; 0x1542 <pomiar>
    158e:	a7 01       	movw	r20, r14
    1590:	96 01       	movw	r18, r12
    1592:	28 0f       	add	r18, r24
    1594:	39 1f       	adc	r19, r25
    1596:	41 1d       	adc	r20, r1
    1598:	51 1d       	adc	r21, r1
    159a:	ca 01       	movw	r24, r20
    159c:	b9 01       	movw	r22, r18
    159e:	29 e0       	ldi	r18, 0x09	; 9
    15a0:	30 e0       	ldi	r19, 0x00	; 0
    15a2:	40 e0       	ldi	r20, 0x00	; 0
    15a4:	50 e0       	ldi	r21, 0x00	; 0
    15a6:	0e 94 d8 1c 	call	0x39b0	; 0x39b0 <__udivmodsi4>
    15aa:	2a 83       	std	Y+2, r18	; 0x02
    15ac:	3b 83       	std	Y+3, r19	; 0x03
    15ae:	4c 83       	std	Y+4, r20	; 0x04
    15b0:	5d 83       	std	Y+5, r21	; 0x05
    15b2:	c9 01       	movw	r24, r18
    15b4:	df 91       	pop	r29
    15b6:	cf 91       	pop	r28
    15b8:	ff 90       	pop	r15
    15ba:	ef 90       	pop	r14
    15bc:	df 90       	pop	r13
    15be:	cf 90       	pop	r12
    15c0:	08 95       	ret

000015c2 <ADC_GETALL>:
    15c2:	80 91 58 08 	lds	r24, 0x0858
    15c6:	60 e0       	ldi	r22, 0x00	; 0
    15c8:	81 11       	cpse	r24, r1
    15ca:	3e c0       	rjmp	.+124    	; 0x1648 <ADC_GETALL+0x86>
    15cc:	89 e7       	ldi	r24, 0x79	; 121
    15ce:	98 e0       	ldi	r25, 0x08	; 8
    15d0:	0e 94 ae 0a 	call	0x155c	; 0x155c <Licz_Srednia>
    15d4:	88 56       	subi	r24, 0x68	; 104
    15d6:	91 40       	sbci	r25, 0x01	; 1
    15d8:	90 93 ac 08 	sts	0x08AC, r25
    15dc:	80 93 ab 08 	sts	0x08AB, r24
    15e0:	61 e0       	ldi	r22, 0x01	; 1
    15e2:	87 eb       	ldi	r24, 0xB7	; 183
    15e4:	98 e0       	ldi	r25, 0x08	; 8
    15e6:	0e 94 ae 0a 	call	0x155c	; 0x155c <Licz_Srednia>
    15ea:	88 56       	subi	r24, 0x68	; 104
    15ec:	91 40       	sbci	r25, 0x01	; 1
    15ee:	90 93 ae 08 	sts	0x08AE, r25
    15f2:	80 93 ad 08 	sts	0x08AD, r24
    15f6:	62 e0       	ldi	r22, 0x02	; 2
    15f8:	8e e8       	ldi	r24, 0x8E	; 142
    15fa:	98 e0       	ldi	r25, 0x08	; 8
    15fc:	0e 94 ae 0a 	call	0x155c	; 0x155c <Licz_Srednia>
    1600:	88 56       	subi	r24, 0x68	; 104
    1602:	91 40       	sbci	r25, 0x01	; 1
    1604:	90 93 b0 08 	sts	0x08B0, r25
    1608:	80 93 af 08 	sts	0x08AF, r24
    160c:	63 e0       	ldi	r22, 0x03	; 3
    160e:	8f e6       	ldi	r24, 0x6F	; 111
    1610:	98 e0       	ldi	r25, 0x08	; 8
    1612:	0e 94 ae 0a 	call	0x155c	; 0x155c <Licz_Srednia>
    1616:	88 56       	subi	r24, 0x68	; 104
    1618:	91 40       	sbci	r25, 0x01	; 1
    161a:	90 93 b2 08 	sts	0x08B2, r25
    161e:	80 93 b1 08 	sts	0x08B1, r24
    1622:	64 e0       	ldi	r22, 0x04	; 4
    1624:	85 e6       	ldi	r24, 0x65	; 101
    1626:	98 e0       	ldi	r25, 0x08	; 8
    1628:	0e 94 ae 0a 	call	0x155c	; 0x155c <Licz_Srednia>
    162c:	88 56       	subi	r24, 0x68	; 104
    162e:	91 40       	sbci	r25, 0x01	; 1
    1630:	90 93 b4 08 	sts	0x08B4, r25
    1634:	80 93 b3 08 	sts	0x08B3, r24
    1638:	65 e0       	ldi	r22, 0x05	; 5
    163a:	88 e8       	ldi	r24, 0x88	; 136
    163c:	98 e0       	ldi	r25, 0x08	; 8
    163e:	0e 94 ae 0a 	call	0x155c	; 0x155c <Licz_Srednia>
    1642:	88 56       	subi	r24, 0x68	; 104
    1644:	91 40       	sbci	r25, 0x01	; 1
    1646:	31 c0       	rjmp	.+98     	; 0x16aa <ADC_GETALL+0xe8>
    1648:	89 e7       	ldi	r24, 0x79	; 121
    164a:	98 e0       	ldi	r25, 0x08	; 8
    164c:	0e 94 ae 0a 	call	0x155c	; 0x155c <Licz_Srednia>
    1650:	90 93 ac 08 	sts	0x08AC, r25
    1654:	80 93 ab 08 	sts	0x08AB, r24
    1658:	61 e0       	ldi	r22, 0x01	; 1
    165a:	87 eb       	ldi	r24, 0xB7	; 183
    165c:	98 e0       	ldi	r25, 0x08	; 8
    165e:	0e 94 ae 0a 	call	0x155c	; 0x155c <Licz_Srednia>
    1662:	90 93 ae 08 	sts	0x08AE, r25
    1666:	80 93 ad 08 	sts	0x08AD, r24
    166a:	62 e0       	ldi	r22, 0x02	; 2
    166c:	8e e8       	ldi	r24, 0x8E	; 142
    166e:	98 e0       	ldi	r25, 0x08	; 8
    1670:	0e 94 ae 0a 	call	0x155c	; 0x155c <Licz_Srednia>
    1674:	90 93 b0 08 	sts	0x08B0, r25
    1678:	80 93 af 08 	sts	0x08AF, r24
    167c:	63 e0       	ldi	r22, 0x03	; 3
    167e:	8f e6       	ldi	r24, 0x6F	; 111
    1680:	98 e0       	ldi	r25, 0x08	; 8
    1682:	0e 94 ae 0a 	call	0x155c	; 0x155c <Licz_Srednia>
    1686:	90 93 b2 08 	sts	0x08B2, r25
    168a:	80 93 b1 08 	sts	0x08B1, r24
    168e:	64 e0       	ldi	r22, 0x04	; 4
    1690:	85 e6       	ldi	r24, 0x65	; 101
    1692:	98 e0       	ldi	r25, 0x08	; 8
    1694:	0e 94 ae 0a 	call	0x155c	; 0x155c <Licz_Srednia>
    1698:	90 93 b4 08 	sts	0x08B4, r25
    169c:	80 93 b3 08 	sts	0x08B3, r24
    16a0:	65 e0       	ldi	r22, 0x05	; 5
    16a2:	88 e8       	ldi	r24, 0x88	; 136
    16a4:	98 e0       	ldi	r25, 0x08	; 8
    16a6:	0e 94 ae 0a 	call	0x155c	; 0x155c <Licz_Srednia>
    16aa:	90 93 b6 08 	sts	0x08B6, r25
    16ae:	80 93 b5 08 	sts	0x08B5, r24
    16b2:	08 95       	ret

000016b4 <PRESSURE_CONVERT>:
    16b4:	8f 92       	push	r8
    16b6:	9f 92       	push	r9
    16b8:	af 92       	push	r10
    16ba:	bf 92       	push	r11
    16bc:	cf 92       	push	r12
    16be:	df 92       	push	r13
    16c0:	ef 92       	push	r14
    16c2:	ff 92       	push	r15
    16c4:	6c 01       	movw	r12, r24
    16c6:	80 91 58 08 	lds	r24, 0x0858
    16ca:	ee 24       	eor	r14, r14
    16cc:	d7 fc       	sbrc	r13, 7
    16ce:	e0 94       	com	r14
    16d0:	fe 2c       	mov	r15, r14
    16d2:	81 11       	cpse	r24, r1
    16d4:	1a c0       	rjmp	.+52     	; 0x170a <PRESSURE_CONVERT+0x56>
    16d6:	c7 01       	movw	r24, r14
    16d8:	b6 01       	movw	r22, r12
    16da:	0e 94 1e 1e 	call	0x3c3c	; 0x3c3c <__floatsisf>
    16de:	2d ec       	ldi	r18, 0xCD	; 205
    16e0:	3c ec       	ldi	r19, 0xCC	; 204
    16e2:	4c e4       	ldi	r20, 0x4C	; 76
    16e4:	5d e3       	ldi	r21, 0x3D	; 61
    16e6:	0e 94 ce 1e 	call	0x3d9c	; 0x3d9c <__mulsf3>
    16ea:	2a e0       	ldi	r18, 0x0A	; 10
    16ec:	37 ed       	ldi	r19, 0xD7	; 215
    16ee:	43 e2       	ldi	r20, 0x23	; 35
    16f0:	5d e3       	ldi	r21, 0x3D	; 61
    16f2:	0e 94 1a 1d 	call	0x3a34	; 0x3a34 <__subsf3>
    16f6:	20 e0       	ldi	r18, 0x00	; 0
    16f8:	30 e0       	ldi	r19, 0x00	; 0
    16fa:	40 ea       	ldi	r20, 0xA0	; 160
    16fc:	50 e4       	ldi	r21, 0x40	; 64
    16fe:	0e 94 ce 1e 	call	0x3d9c	; 0x3d9c <__mulsf3>
    1702:	0e 94 eb 1d 	call	0x3bd6	; 0x3bd6 <__fixsfsi>
    1706:	9b 01       	movw	r18, r22
    1708:	6c c0       	rjmp	.+216    	; 0x17e2 <PRESSURE_CONVERT+0x12e>
    170a:	60 91 02 01 	lds	r22, 0x0102
    170e:	70 91 03 01 	lds	r23, 0x0103
    1712:	88 27       	eor	r24, r24
    1714:	77 fd       	sbrc	r23, 7
    1716:	80 95       	com	r24
    1718:	98 2f       	mov	r25, r24
    171a:	0e 94 1e 1e 	call	0x3c3c	; 0x3c3c <__floatsisf>
    171e:	20 e0       	ldi	r18, 0x00	; 0
    1720:	30 e0       	ldi	r19, 0x00	; 0
    1722:	48 ec       	ldi	r20, 0xC8	; 200
    1724:	52 e4       	ldi	r21, 0x42	; 66
    1726:	0e 94 1b 1d 	call	0x3a36	; 0x3a36 <__addsf3>
    172a:	20 e0       	ldi	r18, 0x00	; 0
    172c:	30 e0       	ldi	r19, 0x00	; 0
    172e:	48 ec       	ldi	r20, 0xC8	; 200
    1730:	52 e4       	ldi	r21, 0x42	; 66
    1732:	0e 94 83 1d 	call	0x3b06	; 0x3b06 <__divsf3>
    1736:	4b 01       	movw	r8, r22
    1738:	5c 01       	movw	r10, r24
    173a:	c7 01       	movw	r24, r14
    173c:	b6 01       	movw	r22, r12
    173e:	0e 94 1e 1e 	call	0x3c3c	; 0x3c3c <__floatsisf>
    1742:	9b 01       	movw	r18, r22
    1744:	ac 01       	movw	r20, r24
    1746:	c5 01       	movw	r24, r10
    1748:	b4 01       	movw	r22, r8
    174a:	0e 94 ce 1e 	call	0x3d9c	; 0x3d9c <__mulsf3>
    174e:	20 e0       	ldi	r18, 0x00	; 0
    1750:	30 e0       	ldi	r19, 0x00	; 0
    1752:	40 e8       	ldi	r20, 0x80	; 128
    1754:	5a e3       	ldi	r21, 0x3A	; 58
    1756:	0e 94 ce 1e 	call	0x3d9c	; 0x3d9c <__mulsf3>
    175a:	60 93 4e 08 	sts	0x084E, r22
    175e:	70 93 4f 08 	sts	0x084F, r23
    1762:	80 93 50 08 	sts	0x0850, r24
    1766:	90 93 51 08 	sts	0x0851, r25
    176a:	2d ec       	ldi	r18, 0xCD	; 205
    176c:	3c ec       	ldi	r19, 0xCC	; 204
    176e:	4c e4       	ldi	r20, 0x4C	; 76
    1770:	5e e3       	ldi	r21, 0x3E	; 62
    1772:	0e 94 1a 1d 	call	0x3a34	; 0x3a34 <__subsf3>
    1776:	25 ec       	ldi	r18, 0xC5	; 197
    1778:	30 e2       	ldi	r19, 0x20	; 32
    177a:	40 e3       	ldi	r20, 0x30	; 48
    177c:	5d e3       	ldi	r21, 0x3D	; 61
    177e:	0e 94 83 1d 	call	0x3b06	; 0x3b06 <__divsf3>
    1782:	9b 01       	movw	r18, r22
    1784:	ac 01       	movw	r20, r24
    1786:	0e 94 1b 1d 	call	0x3a36	; 0x3a36 <__addsf3>
    178a:	6b 01       	movw	r12, r22
    178c:	7c 01       	movw	r14, r24
    178e:	20 e0       	ldi	r18, 0x00	; 0
    1790:	30 e0       	ldi	r19, 0x00	; 0
    1792:	a9 01       	movw	r20, r18
    1794:	0e 94 7f 1d 	call	0x3afe	; 0x3afe <__cmpsf2>
    1798:	87 fd       	sbrc	r24, 7
    179a:	09 c0       	rjmp	.+18     	; 0x17ae <PRESSURE_CONVERT+0xfa>
    179c:	c0 92 4a 08 	sts	0x084A, r12
    17a0:	d0 92 4b 08 	sts	0x084B, r13
    17a4:	e0 92 4c 08 	sts	0x084C, r14
    17a8:	f0 92 4d 08 	sts	0x084D, r15
    17ac:	08 c0       	rjmp	.+16     	; 0x17be <PRESSURE_CONVERT+0x10a>
    17ae:	10 92 4a 08 	sts	0x084A, r1
    17b2:	10 92 4b 08 	sts	0x084B, r1
    17b6:	10 92 4c 08 	sts	0x084C, r1
    17ba:	10 92 4d 08 	sts	0x084D, r1
    17be:	60 91 4a 08 	lds	r22, 0x084A
    17c2:	70 91 4b 08 	lds	r23, 0x084B
    17c6:	80 91 4c 08 	lds	r24, 0x084C
    17ca:	90 91 4d 08 	lds	r25, 0x084D
    17ce:	0e 94 eb 1d 	call	0x3bd6	; 0x3bd6 <__fixsfsi>
    17d2:	20 91 00 01 	lds	r18, 0x0100
    17d6:	30 91 01 01 	lds	r19, 0x0101
    17da:	24 56       	subi	r18, 0x64	; 100
    17dc:	31 09       	sbc	r19, r1
    17de:	26 0f       	add	r18, r22
    17e0:	37 1f       	adc	r19, r23
    17e2:	c9 01       	movw	r24, r18
    17e4:	ff 90       	pop	r15
    17e6:	ef 90       	pop	r14
    17e8:	df 90       	pop	r13
    17ea:	cf 90       	pop	r12
    17ec:	bf 90       	pop	r11
    17ee:	af 90       	pop	r10
    17f0:	9f 90       	pop	r9
    17f2:	8f 90       	pop	r8
    17f4:	08 95       	ret

000017f6 <__vector_15>:
    17f6:	1f 92       	push	r1
    17f8:	0f 92       	push	r0
    17fa:	0f b6       	in	r0, 0x3f	; 63
    17fc:	0f 92       	push	r0
    17fe:	11 24       	eor	r1, r1
    1800:	8f 93       	push	r24
    1802:	9f 93       	push	r25
    1804:	80 91 6b 08 	lds	r24, 0x086B
    1808:	90 91 6c 08 	lds	r25, 0x086C
    180c:	00 97       	sbiw	r24, 0x00	; 0
    180e:	29 f0       	breq	.+10     	; 0x181a <__vector_15+0x24>
    1810:	01 97       	sbiw	r24, 0x01	; 1
    1812:	90 93 6c 08 	sts	0x086C, r25
    1816:	80 93 6b 08 	sts	0x086B, r24
    181a:	80 91 bd 08 	lds	r24, 0x08BD
    181e:	90 91 be 08 	lds	r25, 0x08BE
    1822:	00 97       	sbiw	r24, 0x00	; 0
    1824:	29 f0       	breq	.+10     	; 0x1830 <__vector_15+0x3a>
    1826:	01 97       	sbiw	r24, 0x01	; 1
    1828:	90 93 be 08 	sts	0x08BE, r25
    182c:	80 93 bd 08 	sts	0x08BD, r24
    1830:	80 91 a9 08 	lds	r24, 0x08A9
    1834:	90 91 aa 08 	lds	r25, 0x08AA
    1838:	00 97       	sbiw	r24, 0x00	; 0
    183a:	29 f0       	breq	.+10     	; 0x1846 <__vector_15+0x50>
    183c:	01 97       	sbiw	r24, 0x01	; 1
    183e:	90 93 aa 08 	sts	0x08AA, r25
    1842:	80 93 a9 08 	sts	0x08A9, r24
    1846:	9f 91       	pop	r25
    1848:	8f 91       	pop	r24
    184a:	0f 90       	pop	r0
    184c:	0f be       	out	0x3f, r0	; 63
    184e:	0f 90       	pop	r0
    1850:	1f 90       	pop	r1
    1852:	18 95       	reti

00001854 <BEEP_ERROR>:
    1854:	c7 9a       	sbi	0x18, 7	; 24
    1856:	2f ef       	ldi	r18, 0xFF	; 255
    1858:	8f e2       	ldi	r24, 0x2F	; 47
    185a:	98 e1       	ldi	r25, 0x18	; 24
    185c:	21 50       	subi	r18, 0x01	; 1
    185e:	80 40       	sbci	r24, 0x00	; 0
    1860:	90 40       	sbci	r25, 0x00	; 0
    1862:	e1 f7       	brne	.-8      	; 0x185c <BEEP_ERROR+0x8>
    1864:	00 c0       	rjmp	.+0      	; 0x1866 <BEEP_ERROR+0x12>
    1866:	00 00       	nop
    1868:	c7 98       	cbi	0x18, 7	; 24
    186a:	2f ef       	ldi	r18, 0xFF	; 255
    186c:	8f e9       	ldi	r24, 0x9F	; 159
    186e:	95 e0       	ldi	r25, 0x05	; 5
    1870:	21 50       	subi	r18, 0x01	; 1
    1872:	80 40       	sbci	r24, 0x00	; 0
    1874:	90 40       	sbci	r25, 0x00	; 0
    1876:	e1 f7       	brne	.-8      	; 0x1870 <BEEP_ERROR+0x1c>
    1878:	00 c0       	rjmp	.+0      	; 0x187a <BEEP_ERROR+0x26>
    187a:	00 00       	nop
    187c:	c7 9a       	sbi	0x18, 7	; 24
    187e:	2f ef       	ldi	r18, 0xFF	; 255
    1880:	8f e9       	ldi	r24, 0x9F	; 159
    1882:	95 e0       	ldi	r25, 0x05	; 5
    1884:	21 50       	subi	r18, 0x01	; 1
    1886:	80 40       	sbci	r24, 0x00	; 0
    1888:	90 40       	sbci	r25, 0x00	; 0
    188a:	e1 f7       	brne	.-8      	; 0x1884 <BEEP_ERROR+0x30>
    188c:	00 c0       	rjmp	.+0      	; 0x188e <BEEP_ERROR+0x3a>
    188e:	00 00       	nop
    1890:	c7 98       	cbi	0x18, 7	; 24
    1892:	2f ef       	ldi	r18, 0xFF	; 255
    1894:	8f e9       	ldi	r24, 0x9F	; 159
    1896:	95 e0       	ldi	r25, 0x05	; 5
    1898:	21 50       	subi	r18, 0x01	; 1
    189a:	80 40       	sbci	r24, 0x00	; 0
    189c:	90 40       	sbci	r25, 0x00	; 0
    189e:	e1 f7       	brne	.-8      	; 0x1898 <BEEP_ERROR+0x44>
    18a0:	00 c0       	rjmp	.+0      	; 0x18a2 <BEEP_ERROR+0x4e>
    18a2:	00 00       	nop
    18a4:	c7 9a       	sbi	0x18, 7	; 24
    18a6:	2f ef       	ldi	r18, 0xFF	; 255
    18a8:	8f e9       	ldi	r24, 0x9F	; 159
    18aa:	95 e0       	ldi	r25, 0x05	; 5
    18ac:	21 50       	subi	r18, 0x01	; 1
    18ae:	80 40       	sbci	r24, 0x00	; 0
    18b0:	90 40       	sbci	r25, 0x00	; 0
    18b2:	e1 f7       	brne	.-8      	; 0x18ac <BEEP_ERROR+0x58>
    18b4:	00 c0       	rjmp	.+0      	; 0x18b6 <BEEP_ERROR+0x62>
    18b6:	00 00       	nop
    18b8:	c7 98       	cbi	0x18, 7	; 24
    18ba:	2f ef       	ldi	r18, 0xFF	; 255
    18bc:	8f e3       	ldi	r24, 0x3F	; 63
    18be:	98 e3       	ldi	r25, 0x38	; 56
    18c0:	21 50       	subi	r18, 0x01	; 1
    18c2:	80 40       	sbci	r24, 0x00	; 0
    18c4:	90 40       	sbci	r25, 0x00	; 0
    18c6:	e1 f7       	brne	.-8      	; 0x18c0 <BEEP_ERROR+0x6c>
    18c8:	00 c0       	rjmp	.+0      	; 0x18ca <BEEP_ERROR+0x76>
    18ca:	00 00       	nop
    18cc:	08 95       	ret

000018ce <BEEP_GOOD>:
    18ce:	c7 9a       	sbi	0x18, 7	; 24
    18d0:	2f ef       	ldi	r18, 0xFF	; 255
    18d2:	8f e0       	ldi	r24, 0x0F	; 15
    18d4:	9e e0       	ldi	r25, 0x0E	; 14
    18d6:	21 50       	subi	r18, 0x01	; 1
    18d8:	80 40       	sbci	r24, 0x00	; 0
    18da:	90 40       	sbci	r25, 0x00	; 0
    18dc:	e1 f7       	brne	.-8      	; 0x18d6 <BEEP_GOOD+0x8>
    18de:	00 c0       	rjmp	.+0      	; 0x18e0 <BEEP_GOOD+0x12>
    18e0:	00 00       	nop
    18e2:	c7 98       	cbi	0x18, 7	; 24
    18e4:	2f ef       	ldi	r18, 0xFF	; 255
    18e6:	8f ee       	ldi	r24, 0xEF	; 239
    18e8:	93 e0       	ldi	r25, 0x03	; 3
    18ea:	21 50       	subi	r18, 0x01	; 1
    18ec:	80 40       	sbci	r24, 0x00	; 0
    18ee:	90 40       	sbci	r25, 0x00	; 0
    18f0:	e1 f7       	brne	.-8      	; 0x18ea <BEEP_GOOD+0x1c>
    18f2:	00 c0       	rjmp	.+0      	; 0x18f4 <BEEP_GOOD+0x26>
    18f4:	00 00       	nop
    18f6:	c7 9a       	sbi	0x18, 7	; 24
    18f8:	2f ef       	ldi	r18, 0xFF	; 255
    18fa:	8f e0       	ldi	r24, 0x0F	; 15
    18fc:	9e e0       	ldi	r25, 0x0E	; 14
    18fe:	21 50       	subi	r18, 0x01	; 1
    1900:	80 40       	sbci	r24, 0x00	; 0
    1902:	90 40       	sbci	r25, 0x00	; 0
    1904:	e1 f7       	brne	.-8      	; 0x18fe <BEEP_GOOD+0x30>
    1906:	00 c0       	rjmp	.+0      	; 0x1908 <BEEP_GOOD+0x3a>
    1908:	00 00       	nop
    190a:	c7 98       	cbi	0x18, 7	; 24
    190c:	2f ef       	ldi	r18, 0xFF	; 255
    190e:	8f ee       	ldi	r24, 0xEF	; 239
    1910:	93 e0       	ldi	r25, 0x03	; 3
    1912:	21 50       	subi	r18, 0x01	; 1
    1914:	80 40       	sbci	r24, 0x00	; 0
    1916:	90 40       	sbci	r25, 0x00	; 0
    1918:	e1 f7       	brne	.-8      	; 0x1912 <BEEP_GOOD+0x44>
    191a:	00 c0       	rjmp	.+0      	; 0x191c <BEEP_GOOD+0x4e>
    191c:	00 00       	nop
    191e:	c7 9a       	sbi	0x18, 7	; 24
    1920:	2f ef       	ldi	r18, 0xFF	; 255
    1922:	8f ee       	ldi	r24, 0xEF	; 239
    1924:	93 e0       	ldi	r25, 0x03	; 3
    1926:	21 50       	subi	r18, 0x01	; 1
    1928:	80 40       	sbci	r24, 0x00	; 0
    192a:	90 40       	sbci	r25, 0x00	; 0
    192c:	e1 f7       	brne	.-8      	; 0x1926 <BEEP_GOOD+0x58>
    192e:	00 c0       	rjmp	.+0      	; 0x1930 <BEEP_GOOD+0x62>
    1930:	00 00       	nop
    1932:	c7 98       	cbi	0x18, 7	; 24
    1934:	08 95       	ret

00001936 <LATCH_CONTROL>:
    1936:	81 30       	cpi	r24, 0x01	; 1
    1938:	09 f1       	breq	.+66     	; 0x197c <LATCH_CONTROL+0x46>
    193a:	18 f0       	brcs	.+6      	; 0x1942 <LATCH_CONTROL+0xc>
    193c:	82 30       	cpi	r24, 0x02	; 2
    193e:	d9 f1       	breq	.+118    	; 0x19b6 <LATCH_CONTROL+0x80>
    1940:	08 95       	ret
    1942:	20 91 55 08 	lds	r18, 0x0855
    1946:	81 e0       	ldi	r24, 0x01	; 1
    1948:	90 e0       	ldi	r25, 0x00	; 0
    194a:	06 2e       	mov	r0, r22
    194c:	01 c0       	rjmp	.+2      	; 0x1950 <LATCH_CONTROL+0x1a>
    194e:	88 0f       	add	r24, r24
    1950:	0a 94       	dec	r0
    1952:	ea f7       	brpl	.-6      	; 0x194e <LATCH_CONTROL+0x18>
    1954:	44 23       	and	r20, r20
    1956:	11 f0       	breq	.+4      	; 0x195c <LATCH_CONTROL+0x26>
    1958:	82 2b       	or	r24, r18
    195a:	02 c0       	rjmp	.+4      	; 0x1960 <LATCH_CONTROL+0x2a>
    195c:	80 95       	com	r24
    195e:	82 23       	and	r24, r18
    1960:	80 93 55 08 	sts	0x0855, r24
    1964:	80 91 55 08 	lds	r24, 0x0855
    1968:	8b bb       	out	0x1b, r24	; 27
    196a:	c4 9a       	sbi	0x18, 4	; 24
    196c:	8f ef       	ldi	r24, 0xFF	; 255
    196e:	93 eb       	ldi	r25, 0xB3	; 179
    1970:	01 97       	sbiw	r24, 0x01	; 1
    1972:	f1 f7       	brne	.-4      	; 0x1970 <LATCH_CONTROL+0x3a>
    1974:	00 c0       	rjmp	.+0      	; 0x1976 <LATCH_CONTROL+0x40>
    1976:	00 00       	nop
    1978:	c4 98       	cbi	0x18, 4	; 24
    197a:	08 95       	ret
    197c:	20 91 54 08 	lds	r18, 0x0854
    1980:	81 e0       	ldi	r24, 0x01	; 1
    1982:	90 e0       	ldi	r25, 0x00	; 0
    1984:	06 2e       	mov	r0, r22
    1986:	01 c0       	rjmp	.+2      	; 0x198a <LATCH_CONTROL+0x54>
    1988:	88 0f       	add	r24, r24
    198a:	0a 94       	dec	r0
    198c:	ea f7       	brpl	.-6      	; 0x1988 <LATCH_CONTROL+0x52>
    198e:	44 23       	and	r20, r20
    1990:	11 f0       	breq	.+4      	; 0x1996 <LATCH_CONTROL+0x60>
    1992:	82 2b       	or	r24, r18
    1994:	02 c0       	rjmp	.+4      	; 0x199a <LATCH_CONTROL+0x64>
    1996:	80 95       	com	r24
    1998:	82 23       	and	r24, r18
    199a:	80 93 54 08 	sts	0x0854, r24
    199e:	80 91 54 08 	lds	r24, 0x0854
    19a2:	8b bb       	out	0x1b, r24	; 27
    19a4:	c3 9a       	sbi	0x18, 3	; 24
    19a6:	8f ef       	ldi	r24, 0xFF	; 255
    19a8:	93 eb       	ldi	r25, 0xB3	; 179
    19aa:	01 97       	sbiw	r24, 0x01	; 1
    19ac:	f1 f7       	brne	.-4      	; 0x19aa <LATCH_CONTROL+0x74>
    19ae:	00 c0       	rjmp	.+0      	; 0x19b0 <LATCH_CONTROL+0x7a>
    19b0:	00 00       	nop
    19b2:	c3 98       	cbi	0x18, 3	; 24
    19b4:	08 95       	ret
    19b6:	20 91 53 08 	lds	r18, 0x0853
    19ba:	81 e0       	ldi	r24, 0x01	; 1
    19bc:	90 e0       	ldi	r25, 0x00	; 0
    19be:	06 2e       	mov	r0, r22
    19c0:	01 c0       	rjmp	.+2      	; 0x19c4 <LATCH_CONTROL+0x8e>
    19c2:	88 0f       	add	r24, r24
    19c4:	0a 94       	dec	r0
    19c6:	ea f7       	brpl	.-6      	; 0x19c2 <LATCH_CONTROL+0x8c>
    19c8:	44 23       	and	r20, r20
    19ca:	11 f0       	breq	.+4      	; 0x19d0 <LATCH_CONTROL+0x9a>
    19cc:	82 2b       	or	r24, r18
    19ce:	02 c0       	rjmp	.+4      	; 0x19d4 <LATCH_CONTROL+0x9e>
    19d0:	80 95       	com	r24
    19d2:	82 23       	and	r24, r18
    19d4:	80 93 53 08 	sts	0x0853, r24
    19d8:	80 91 53 08 	lds	r24, 0x0853
    19dc:	8b bb       	out	0x1b, r24	; 27
    19de:	c2 9a       	sbi	0x18, 2	; 24
    19e0:	8f ef       	ldi	r24, 0xFF	; 255
    19e2:	93 eb       	ldi	r25, 0xB3	; 179
    19e4:	01 97       	sbiw	r24, 0x01	; 1
    19e6:	f1 f7       	brne	.-4      	; 0x19e4 <LATCH_CONTROL+0xae>
    19e8:	00 c0       	rjmp	.+0      	; 0x19ea <LATCH_CONTROL+0xb4>
    19ea:	00 00       	nop
    19ec:	c2 98       	cbi	0x18, 2	; 24
    19ee:	08 95       	ret

000019f0 <LED_STATUS_ON>:
    19f0:	82 30       	cpi	r24, 0x02	; 2
    19f2:	d1 f0       	breq	.+52     	; 0x1a28 <LED_STATUS_ON+0x38>
    19f4:	28 f4       	brcc	.+10     	; 0x1a00 <LED_STATUS_ON+0x10>
    19f6:	88 23       	and	r24, r24
    19f8:	41 f0       	breq	.+16     	; 0x1a0a <LED_STATUS_ON+0x1a>
    19fa:	81 30       	cpi	r24, 0x01	; 1
    19fc:	71 f0       	breq	.+28     	; 0x1a1a <LED_STATUS_ON+0x2a>
    19fe:	08 95       	ret
    1a00:	83 30       	cpi	r24, 0x03	; 3
    1a02:	c9 f0       	breq	.+50     	; 0x1a36 <LED_STATUS_ON+0x46>
    1a04:	84 30       	cpi	r24, 0x04	; 4
    1a06:	f9 f0       	breq	.+62     	; 0x1a46 <LED_STATUS_ON+0x56>
    1a08:	08 95       	ret
    1a0a:	41 e0       	ldi	r20, 0x01	; 1
    1a0c:	61 30       	cpi	r22, 0x01	; 1
    1a0e:	11 f4       	brne	.+4      	; 0x1a14 <LED_STATUS_ON+0x24>
    1a10:	67 e0       	ldi	r22, 0x07	; 7
    1a12:	01 c0       	rjmp	.+2      	; 0x1a16 <LED_STATUS_ON+0x26>
    1a14:	65 e0       	ldi	r22, 0x05	; 5
    1a16:	81 e0       	ldi	r24, 0x01	; 1
    1a18:	1d c0       	rjmp	.+58     	; 0x1a54 <LED_STATUS_ON+0x64>
    1a1a:	41 e0       	ldi	r20, 0x01	; 1
    1a1c:	61 30       	cpi	r22, 0x01	; 1
    1a1e:	11 f4       	brne	.+4      	; 0x1a24 <LED_STATUS_ON+0x34>
    1a20:	65 e0       	ldi	r22, 0x05	; 5
    1a22:	0d c0       	rjmp	.+26     	; 0x1a3e <LED_STATUS_ON+0x4e>
    1a24:	66 e0       	ldi	r22, 0x06	; 6
    1a26:	f7 cf       	rjmp	.-18     	; 0x1a16 <LED_STATUS_ON+0x26>
    1a28:	41 e0       	ldi	r20, 0x01	; 1
    1a2a:	61 30       	cpi	r22, 0x01	; 1
    1a2c:	11 f4       	brne	.+4      	; 0x1a32 <LED_STATUS_ON+0x42>
    1a2e:	66 e0       	ldi	r22, 0x06	; 6
    1a30:	06 c0       	rjmp	.+12     	; 0x1a3e <LED_STATUS_ON+0x4e>
    1a32:	65 e0       	ldi	r22, 0x05	; 5
    1a34:	0e c0       	rjmp	.+28     	; 0x1a52 <LED_STATUS_ON+0x62>
    1a36:	41 e0       	ldi	r20, 0x01	; 1
    1a38:	61 30       	cpi	r22, 0x01	; 1
    1a3a:	19 f4       	brne	.+6      	; 0x1a42 <LED_STATUS_ON+0x52>
    1a3c:	67 e0       	ldi	r22, 0x07	; 7
    1a3e:	82 e0       	ldi	r24, 0x02	; 2
    1a40:	09 c0       	rjmp	.+18     	; 0x1a54 <LED_STATUS_ON+0x64>
    1a42:	66 e0       	ldi	r22, 0x06	; 6
    1a44:	06 c0       	rjmp	.+12     	; 0x1a52 <LED_STATUS_ON+0x62>
    1a46:	61 30       	cpi	r22, 0x01	; 1
    1a48:	11 f4       	brne	.+4      	; 0x1a4e <LED_STATUS_ON+0x5e>
    1a4a:	c6 9a       	sbi	0x18, 6	; 24
    1a4c:	08 95       	ret
    1a4e:	41 e0       	ldi	r20, 0x01	; 1
    1a50:	67 e0       	ldi	r22, 0x07	; 7
    1a52:	80 e0       	ldi	r24, 0x00	; 0
    1a54:	0c 94 9b 0c 	jmp	0x1936	; 0x1936 <LATCH_CONTROL>

00001a58 <LED_STATUS_OFF>:
    1a58:	82 30       	cpi	r24, 0x02	; 2
    1a5a:	e1 f0       	breq	.+56     	; 0x1a94 <LED_STATUS_OFF+0x3c>
    1a5c:	28 f4       	brcc	.+10     	; 0x1a68 <LED_STATUS_OFF+0x10>
    1a5e:	88 23       	and	r24, r24
    1a60:	41 f0       	breq	.+16     	; 0x1a72 <LED_STATUS_OFF+0x1a>
    1a62:	81 30       	cpi	r24, 0x01	; 1
    1a64:	71 f0       	breq	.+28     	; 0x1a82 <LED_STATUS_OFF+0x2a>
    1a66:	08 95       	ret
    1a68:	83 30       	cpi	r24, 0x03	; 3
    1a6a:	e1 f0       	breq	.+56     	; 0x1aa4 <LED_STATUS_OFF+0x4c>
    1a6c:	84 30       	cpi	r24, 0x04	; 4
    1a6e:	11 f1       	breq	.+68     	; 0x1ab4 <LED_STATUS_OFF+0x5c>
    1a70:	08 95       	ret
    1a72:	40 e0       	ldi	r20, 0x00	; 0
    1a74:	67 e0       	ldi	r22, 0x07	; 7
    1a76:	81 e0       	ldi	r24, 0x01	; 1
    1a78:	0e 94 9b 0c 	call	0x1936	; 0x1936 <LATCH_CONTROL>
    1a7c:	40 e0       	ldi	r20, 0x00	; 0
    1a7e:	65 e0       	ldi	r22, 0x05	; 5
    1a80:	07 c0       	rjmp	.+14     	; 0x1a90 <LED_STATUS_OFF+0x38>
    1a82:	40 e0       	ldi	r20, 0x00	; 0
    1a84:	65 e0       	ldi	r22, 0x05	; 5
    1a86:	82 e0       	ldi	r24, 0x02	; 2
    1a88:	0e 94 9b 0c 	call	0x1936	; 0x1936 <LATCH_CONTROL>
    1a8c:	40 e0       	ldi	r20, 0x00	; 0
    1a8e:	66 e0       	ldi	r22, 0x06	; 6
    1a90:	81 e0       	ldi	r24, 0x01	; 1
    1a92:	14 c0       	rjmp	.+40     	; 0x1abc <LED_STATUS_OFF+0x64>
    1a94:	40 e0       	ldi	r20, 0x00	; 0
    1a96:	66 e0       	ldi	r22, 0x06	; 6
    1a98:	82 e0       	ldi	r24, 0x02	; 2
    1a9a:	0e 94 9b 0c 	call	0x1936	; 0x1936 <LATCH_CONTROL>
    1a9e:	40 e0       	ldi	r20, 0x00	; 0
    1aa0:	65 e0       	ldi	r22, 0x05	; 5
    1aa2:	0b c0       	rjmp	.+22     	; 0x1aba <LED_STATUS_OFF+0x62>
    1aa4:	40 e0       	ldi	r20, 0x00	; 0
    1aa6:	67 e0       	ldi	r22, 0x07	; 7
    1aa8:	82 e0       	ldi	r24, 0x02	; 2
    1aaa:	0e 94 9b 0c 	call	0x1936	; 0x1936 <LATCH_CONTROL>
    1aae:	40 e0       	ldi	r20, 0x00	; 0
    1ab0:	66 e0       	ldi	r22, 0x06	; 6
    1ab2:	03 c0       	rjmp	.+6      	; 0x1aba <LED_STATUS_OFF+0x62>
    1ab4:	c6 98       	cbi	0x18, 6	; 24
    1ab6:	40 e0       	ldi	r20, 0x00	; 0
    1ab8:	67 e0       	ldi	r22, 0x07	; 7
    1aba:	80 e0       	ldi	r24, 0x00	; 0
    1abc:	0c 94 9b 0c 	jmp	0x1936	; 0x1936 <LATCH_CONTROL>

00001ac0 <EEPROM_BYTE_WRITE>:
    1ac0:	e1 99       	sbic	0x1c, 1	; 28
    1ac2:	fe cf       	rjmp	.-4      	; 0x1ac0 <EEPROM_BYTE_WRITE>
    1ac4:	9f bb       	out	0x1f, r25	; 31
    1ac6:	8e bb       	out	0x1e, r24	; 30
    1ac8:	6d bb       	out	0x1d, r22	; 29
    1aca:	e2 9a       	sbi	0x1c, 2	; 28
    1acc:	e1 9a       	sbi	0x1c, 1	; 28
    1ace:	08 95       	ret

00001ad0 <EEPROM_BYTE_READ>:
    1ad0:	e1 99       	sbic	0x1c, 1	; 28
    1ad2:	fe cf       	rjmp	.-4      	; 0x1ad0 <EEPROM_BYTE_READ>
    1ad4:	9f bb       	out	0x1f, r25	; 31
    1ad6:	8e bb       	out	0x1e, r24	; 30
    1ad8:	e0 9a       	sbi	0x1c, 0	; 28
    1ada:	8d b3       	in	r24, 0x1d	; 29
    1adc:	08 95       	ret

00001ade <EEPROM_WRITE>:
    1ade:	cf 92       	push	r12
    1ae0:	df 92       	push	r13
    1ae2:	ef 92       	push	r14
    1ae4:	ff 92       	push	r15
    1ae6:	0f 93       	push	r16
    1ae8:	1f 93       	push	r17
    1aea:	cf 93       	push	r28
    1aec:	df 93       	push	r29
    1aee:	8b 01       	movw	r16, r22
    1af0:	7a 01       	movw	r14, r20
    1af2:	eb 01       	movw	r28, r22
    1af4:	6c 01       	movw	r12, r24
    1af6:	c6 1a       	sub	r12, r22
    1af8:	d7 0a       	sbc	r13, r23
    1afa:	c6 01       	movw	r24, r12
    1afc:	8c 0f       	add	r24, r28
    1afe:	9d 1f       	adc	r25, r29
    1b00:	9e 01       	movw	r18, r28
    1b02:	20 1b       	sub	r18, r16
    1b04:	31 0b       	sbc	r19, r17
    1b06:	2e 15       	cp	r18, r14
    1b08:	3f 05       	cpc	r19, r15
    1b0a:	24 f4       	brge	.+8      	; 0x1b14 <EEPROM_WRITE+0x36>
    1b0c:	69 91       	ld	r22, Y+
    1b0e:	0e 94 60 0d 	call	0x1ac0	; 0x1ac0 <EEPROM_BYTE_WRITE>
    1b12:	f3 cf       	rjmp	.-26     	; 0x1afa <EEPROM_WRITE+0x1c>
    1b14:	df 91       	pop	r29
    1b16:	cf 91       	pop	r28
    1b18:	1f 91       	pop	r17
    1b1a:	0f 91       	pop	r16
    1b1c:	ff 90       	pop	r15
    1b1e:	ef 90       	pop	r14
    1b20:	df 90       	pop	r13
    1b22:	cf 90       	pop	r12
    1b24:	08 95       	ret

00001b26 <EEPROM_READ>:
    1b26:	cf 92       	push	r12
    1b28:	df 92       	push	r13
    1b2a:	ef 92       	push	r14
    1b2c:	ff 92       	push	r15
    1b2e:	0f 93       	push	r16
    1b30:	1f 93       	push	r17
    1b32:	cf 93       	push	r28
    1b34:	df 93       	push	r29
    1b36:	8b 01       	movw	r16, r22
    1b38:	7a 01       	movw	r14, r20
    1b3a:	eb 01       	movw	r28, r22
    1b3c:	6c 01       	movw	r12, r24
    1b3e:	c6 1a       	sub	r12, r22
    1b40:	d7 0a       	sbc	r13, r23
    1b42:	c6 01       	movw	r24, r12
    1b44:	8c 0f       	add	r24, r28
    1b46:	9d 1f       	adc	r25, r29
    1b48:	9e 01       	movw	r18, r28
    1b4a:	20 1b       	sub	r18, r16
    1b4c:	31 0b       	sbc	r19, r17
    1b4e:	2e 15       	cp	r18, r14
    1b50:	3f 05       	cpc	r19, r15
    1b52:	24 f4       	brge	.+8      	; 0x1b5c <EEPROM_READ+0x36>
    1b54:	0e 94 68 0d 	call	0x1ad0	; 0x1ad0 <EEPROM_BYTE_READ>
    1b58:	89 93       	st	Y+, r24
    1b5a:	f3 cf       	rjmp	.-26     	; 0x1b42 <EEPROM_READ+0x1c>
    1b5c:	df 91       	pop	r29
    1b5e:	cf 91       	pop	r28
    1b60:	1f 91       	pop	r17
    1b62:	0f 91       	pop	r16
    1b64:	ff 90       	pop	r15
    1b66:	ef 90       	pop	r14
    1b68:	df 90       	pop	r13
    1b6a:	cf 90       	pop	r12
    1b6c:	08 95       	ret

00001b6e <VALVE_CONTROL>:
    1b6e:	0f 93       	push	r16
    1b70:	1f 93       	push	r17
    1b72:	82 30       	cpi	r24, 0x02	; 2
    1b74:	09 f4       	brne	.+2      	; 0x1b78 <VALVE_CONTROL+0xa>
    1b76:	89 c0       	rjmp	.+274    	; 0x1c8a <VALVE_CONTROL+0x11c>
    1b78:	30 f4       	brcc	.+12     	; 0x1b86 <VALVE_CONTROL+0x18>
    1b7a:	88 23       	and	r24, r24
    1b7c:	59 f0       	breq	.+22     	; 0x1b94 <VALVE_CONTROL+0x26>
    1b7e:	81 30       	cpi	r24, 0x01	; 1
    1b80:	09 f4       	brne	.+2      	; 0x1b84 <VALVE_CONTROL+0x16>
    1b82:	46 c0       	rjmp	.+140    	; 0x1c10 <VALVE_CONTROL+0xa2>
    1b84:	3d c1       	rjmp	.+634    	; 0x1e00 <VALVE_CONTROL+0x292>
    1b86:	83 30       	cpi	r24, 0x03	; 3
    1b88:	09 f4       	brne	.+2      	; 0x1b8c <VALVE_CONTROL+0x1e>
    1b8a:	bc c0       	rjmp	.+376    	; 0x1d04 <VALVE_CONTROL+0x196>
    1b8c:	84 30       	cpi	r24, 0x04	; 4
    1b8e:	09 f4       	brne	.+2      	; 0x1b92 <VALVE_CONTROL+0x24>
    1b90:	f7 c0       	rjmp	.+494    	; 0x1d80 <VALVE_CONTROL+0x212>
    1b92:	36 c1       	rjmp	.+620    	; 0x1e00 <VALVE_CONTROL+0x292>
    1b94:	06 2f       	mov	r16, r22
    1b96:	10 e0       	ldi	r17, 0x00	; 0
    1b98:	f8 01       	movw	r30, r16
    1b9a:	31 97       	sbiw	r30, 0x01	; 1
    1b9c:	e7 30       	cpi	r30, 0x07	; 7
    1b9e:	f1 05       	cpc	r31, r1
    1ba0:	08 f0       	brcs	.+2      	; 0x1ba4 <VALVE_CONTROL+0x36>
    1ba2:	2e c1       	rjmp	.+604    	; 0x1e00 <VALVE_CONTROL+0x292>
    1ba4:	ea 5b       	subi	r30, 0xBA	; 186
    1ba6:	ff 4f       	sbci	r31, 0xFF	; 255
    1ba8:	0c 94 fa 1c 	jmp	0x39f4	; 0x39f4 <__tablejump2__>
    1bac:	41 e0       	ldi	r20, 0x01	; 1
    1bae:	60 e0       	ldi	r22, 0x00	; 0
    1bb0:	82 e0       	ldi	r24, 0x02	; 2
    1bb2:	0e 94 9b 0c 	call	0x1936	; 0x1936 <LATCH_CONTROL>
    1bb6:	40 e0       	ldi	r20, 0x00	; 0
    1bb8:	61 e0       	ldi	r22, 0x01	; 1
    1bba:	82 e0       	ldi	r24, 0x02	; 2
    1bbc:	0e 94 9b 0c 	call	0x1936	; 0x1936 <LATCH_CONTROL>
    1bc0:	25 c0       	rjmp	.+74     	; 0x1c0c <VALVE_CONTROL+0x9e>
    1bc2:	40 e0       	ldi	r20, 0x00	; 0
    1bc4:	60 e0       	ldi	r22, 0x00	; 0
    1bc6:	82 e0       	ldi	r24, 0x02	; 2
    1bc8:	17 c1       	rjmp	.+558    	; 0x1df8 <VALVE_CONTROL+0x28a>
    1bca:	41 e0       	ldi	r20, 0x01	; 1
    1bcc:	60 e0       	ldi	r22, 0x00	; 0
    1bce:	82 e0       	ldi	r24, 0x02	; 2
    1bd0:	0e 94 9b 0c 	call	0x1936	; 0x1936 <LATCH_CONTROL>
    1bd4:	41 e0       	ldi	r20, 0x01	; 1
    1bd6:	61 e0       	ldi	r22, 0x01	; 1
    1bd8:	82 e0       	ldi	r24, 0x02	; 2
    1bda:	0e 94 9b 0c 	call	0x1936	; 0x1936 <LATCH_CONTROL>
    1bde:	40 e0       	ldi	r20, 0x00	; 0
    1be0:	62 e0       	ldi	r22, 0x02	; 2
    1be2:	f1 cf       	rjmp	.-30     	; 0x1bc6 <VALVE_CONTROL+0x58>
    1be4:	40 e0       	ldi	r20, 0x00	; 0
    1be6:	60 e0       	ldi	r22, 0x00	; 0
    1be8:	82 e0       	ldi	r24, 0x02	; 2
    1bea:	0e 94 9b 0c 	call	0x1936	; 0x1936 <LATCH_CONTROL>
    1bee:	40 e0       	ldi	r20, 0x00	; 0
    1bf0:	f2 cf       	rjmp	.-28     	; 0x1bd6 <VALVE_CONTROL+0x68>
    1bf2:	41 e0       	ldi	r20, 0x01	; 1
    1bf4:	62 e0       	ldi	r22, 0x02	; 2
    1bf6:	82 e0       	ldi	r24, 0x02	; 2
    1bf8:	0e 94 9b 0c 	call	0x1936	; 0x1936 <LATCH_CONTROL>
    1bfc:	40 e0       	ldi	r20, 0x00	; 0
    1bfe:	60 e0       	ldi	r22, 0x00	; 0
    1c00:	82 e0       	ldi	r24, 0x02	; 2
    1c02:	0e 94 9b 0c 	call	0x1936	; 0x1936 <LATCH_CONTROL>
    1c06:	40 e0       	ldi	r20, 0x00	; 0
    1c08:	61 e0       	ldi	r22, 0x01	; 1
    1c0a:	dd cf       	rjmp	.-70     	; 0x1bc6 <VALVE_CONTROL+0x58>
    1c0c:	41 e0       	ldi	r20, 0x01	; 1
    1c0e:	e8 cf       	rjmp	.-48     	; 0x1be0 <VALVE_CONTROL+0x72>
    1c10:	46 2f       	mov	r20, r22
    1c12:	50 e0       	ldi	r21, 0x00	; 0
    1c14:	fa 01       	movw	r30, r20
    1c16:	31 97       	sbiw	r30, 0x01	; 1
    1c18:	e7 30       	cpi	r30, 0x07	; 7
    1c1a:	f1 05       	cpc	r31, r1
    1c1c:	08 f0       	brcs	.+2      	; 0x1c20 <VALVE_CONTROL+0xb2>
    1c1e:	f0 c0       	rjmp	.+480    	; 0x1e00 <VALVE_CONTROL+0x292>
    1c20:	e3 5b       	subi	r30, 0xB3	; 179
    1c22:	ff 4f       	sbci	r31, 0xFF	; 255
    1c24:	0c 94 fa 1c 	jmp	0x39f4	; 0x39f4 <__tablejump2__>
    1c28:	41 e0       	ldi	r20, 0x01	; 1
    1c2a:	63 e0       	ldi	r22, 0x03	; 3
    1c2c:	82 e0       	ldi	r24, 0x02	; 2
    1c2e:	0e 94 9b 0c 	call	0x1936	; 0x1936 <LATCH_CONTROL>
    1c32:	40 e0       	ldi	r20, 0x00	; 0
    1c34:	64 e0       	ldi	r22, 0x04	; 4
    1c36:	82 e0       	ldi	r24, 0x02	; 2
    1c38:	0e 94 9b 0c 	call	0x1936	; 0x1936 <LATCH_CONTROL>
    1c3c:	24 c0       	rjmp	.+72     	; 0x1c86 <VALVE_CONTROL+0x118>
    1c3e:	40 e0       	ldi	r20, 0x00	; 0
    1c40:	63 e0       	ldi	r22, 0x03	; 3
    1c42:	c1 cf       	rjmp	.-126    	; 0x1bc6 <VALVE_CONTROL+0x58>
    1c44:	41 e0       	ldi	r20, 0x01	; 1
    1c46:	63 e0       	ldi	r22, 0x03	; 3
    1c48:	82 e0       	ldi	r24, 0x02	; 2
    1c4a:	0e 94 9b 0c 	call	0x1936	; 0x1936 <LATCH_CONTROL>
    1c4e:	41 e0       	ldi	r20, 0x01	; 1
    1c50:	64 e0       	ldi	r22, 0x04	; 4
    1c52:	82 e0       	ldi	r24, 0x02	; 2
    1c54:	0e 94 9b 0c 	call	0x1936	; 0x1936 <LATCH_CONTROL>
    1c58:	40 e0       	ldi	r20, 0x00	; 0
    1c5a:	60 e0       	ldi	r22, 0x00	; 0
    1c5c:	6c c0       	rjmp	.+216    	; 0x1d36 <VALVE_CONTROL+0x1c8>
    1c5e:	40 e0       	ldi	r20, 0x00	; 0
    1c60:	63 e0       	ldi	r22, 0x03	; 3
    1c62:	82 e0       	ldi	r24, 0x02	; 2
    1c64:	0e 94 9b 0c 	call	0x1936	; 0x1936 <LATCH_CONTROL>
    1c68:	40 e0       	ldi	r20, 0x00	; 0
    1c6a:	f2 cf       	rjmp	.-28     	; 0x1c50 <VALVE_CONTROL+0xe2>
    1c6c:	41 e0       	ldi	r20, 0x01	; 1
    1c6e:	60 e0       	ldi	r22, 0x00	; 0
    1c70:	81 e0       	ldi	r24, 0x01	; 1
    1c72:	0e 94 9b 0c 	call	0x1936	; 0x1936 <LATCH_CONTROL>
    1c76:	40 e0       	ldi	r20, 0x00	; 0
    1c78:	63 e0       	ldi	r22, 0x03	; 3
    1c7a:	82 e0       	ldi	r24, 0x02	; 2
    1c7c:	0e 94 9b 0c 	call	0x1936	; 0x1936 <LATCH_CONTROL>
    1c80:	40 e0       	ldi	r20, 0x00	; 0
    1c82:	64 e0       	ldi	r22, 0x04	; 4
    1c84:	a0 cf       	rjmp	.-192    	; 0x1bc6 <VALVE_CONTROL+0x58>
    1c86:	41 e0       	ldi	r20, 0x01	; 1
    1c88:	e8 cf       	rjmp	.-48     	; 0x1c5a <VALVE_CONTROL+0xec>
    1c8a:	46 2f       	mov	r20, r22
    1c8c:	50 e0       	ldi	r21, 0x00	; 0
    1c8e:	fa 01       	movw	r30, r20
    1c90:	31 97       	sbiw	r30, 0x01	; 1
    1c92:	e7 30       	cpi	r30, 0x07	; 7
    1c94:	f1 05       	cpc	r31, r1
    1c96:	08 f0       	brcs	.+2      	; 0x1c9a <VALVE_CONTROL+0x12c>
    1c98:	b3 c0       	rjmp	.+358    	; 0x1e00 <VALVE_CONTROL+0x292>
    1c9a:	ec 5a       	subi	r30, 0xAC	; 172
    1c9c:	ff 4f       	sbci	r31, 0xFF	; 255
    1c9e:	0c 94 fa 1c 	jmp	0x39f4	; 0x39f4 <__tablejump2__>
    1ca2:	41 e0       	ldi	r20, 0x01	; 1
    1ca4:	61 e0       	ldi	r22, 0x01	; 1
    1ca6:	81 e0       	ldi	r24, 0x01	; 1
    1ca8:	0e 94 9b 0c 	call	0x1936	; 0x1936 <LATCH_CONTROL>
    1cac:	40 e0       	ldi	r20, 0x00	; 0
    1cae:	62 e0       	ldi	r22, 0x02	; 2
    1cb0:	81 e0       	ldi	r24, 0x01	; 1
    1cb2:	0e 94 9b 0c 	call	0x1936	; 0x1936 <LATCH_CONTROL>
    1cb6:	23 c0       	rjmp	.+70     	; 0x1cfe <VALVE_CONTROL+0x190>
    1cb8:	40 e0       	ldi	r20, 0x00	; 0
    1cba:	61 e0       	ldi	r22, 0x01	; 1
    1cbc:	3c c0       	rjmp	.+120    	; 0x1d36 <VALVE_CONTROL+0x1c8>
    1cbe:	41 e0       	ldi	r20, 0x01	; 1
    1cc0:	61 e0       	ldi	r22, 0x01	; 1
    1cc2:	81 e0       	ldi	r24, 0x01	; 1
    1cc4:	0e 94 9b 0c 	call	0x1936	; 0x1936 <LATCH_CONTROL>
    1cc8:	41 e0       	ldi	r20, 0x01	; 1
    1cca:	06 c0       	rjmp	.+12     	; 0x1cd8 <VALVE_CONTROL+0x16a>
    1ccc:	40 e0       	ldi	r20, 0x00	; 0
    1cce:	61 e0       	ldi	r22, 0x01	; 1
    1cd0:	81 e0       	ldi	r24, 0x01	; 1
    1cd2:	0e 94 9b 0c 	call	0x1936	; 0x1936 <LATCH_CONTROL>
    1cd6:	40 e0       	ldi	r20, 0x00	; 0
    1cd8:	62 e0       	ldi	r22, 0x02	; 2
    1cda:	81 e0       	ldi	r24, 0x01	; 1
    1cdc:	0e 94 9b 0c 	call	0x1936	; 0x1936 <LATCH_CONTROL>
    1ce0:	40 e0       	ldi	r20, 0x00	; 0
    1ce2:	0e c0       	rjmp	.+28     	; 0x1d00 <VALVE_CONTROL+0x192>
    1ce4:	41 e0       	ldi	r20, 0x01	; 1
    1ce6:	63 e0       	ldi	r22, 0x03	; 3
    1ce8:	81 e0       	ldi	r24, 0x01	; 1
    1cea:	0e 94 9b 0c 	call	0x1936	; 0x1936 <LATCH_CONTROL>
    1cee:	40 e0       	ldi	r20, 0x00	; 0
    1cf0:	61 e0       	ldi	r22, 0x01	; 1
    1cf2:	81 e0       	ldi	r24, 0x01	; 1
    1cf4:	0e 94 9b 0c 	call	0x1936	; 0x1936 <LATCH_CONTROL>
    1cf8:	40 e0       	ldi	r20, 0x00	; 0
    1cfa:	62 e0       	ldi	r22, 0x02	; 2
    1cfc:	1c c0       	rjmp	.+56     	; 0x1d36 <VALVE_CONTROL+0x1c8>
    1cfe:	41 e0       	ldi	r20, 0x01	; 1
    1d00:	63 e0       	ldi	r22, 0x03	; 3
    1d02:	19 c0       	rjmp	.+50     	; 0x1d36 <VALVE_CONTROL+0x1c8>
    1d04:	86 2f       	mov	r24, r22
    1d06:	90 e0       	ldi	r25, 0x00	; 0
    1d08:	fc 01       	movw	r30, r24
    1d0a:	31 97       	sbiw	r30, 0x01	; 1
    1d0c:	e7 30       	cpi	r30, 0x07	; 7
    1d0e:	f1 05       	cpc	r31, r1
    1d10:	08 f0       	brcs	.+2      	; 0x1d14 <VALVE_CONTROL+0x1a6>
    1d12:	76 c0       	rjmp	.+236    	; 0x1e00 <VALVE_CONTROL+0x292>
    1d14:	e5 5a       	subi	r30, 0xA5	; 165
    1d16:	ff 4f       	sbci	r31, 0xFF	; 255
    1d18:	0c 94 fa 1c 	jmp	0x39f4	; 0x39f4 <__tablejump2__>
    1d1c:	41 e0       	ldi	r20, 0x01	; 1
    1d1e:	64 e0       	ldi	r22, 0x04	; 4
    1d20:	81 e0       	ldi	r24, 0x01	; 1
    1d22:	0e 94 9b 0c 	call	0x1936	; 0x1936 <LATCH_CONTROL>
    1d26:	40 e0       	ldi	r20, 0x00	; 0
    1d28:	60 e0       	ldi	r22, 0x00	; 0
    1d2a:	80 e0       	ldi	r24, 0x00	; 0
    1d2c:	0e 94 9b 0c 	call	0x1936	; 0x1936 <LATCH_CONTROL>
    1d30:	24 c0       	rjmp	.+72     	; 0x1d7a <VALVE_CONTROL+0x20c>
    1d32:	40 e0       	ldi	r20, 0x00	; 0
    1d34:	64 e0       	ldi	r22, 0x04	; 4
    1d36:	81 e0       	ldi	r24, 0x01	; 1
    1d38:	5f c0       	rjmp	.+190    	; 0x1df8 <VALVE_CONTROL+0x28a>
    1d3a:	41 e0       	ldi	r20, 0x01	; 1
    1d3c:	64 e0       	ldi	r22, 0x04	; 4
    1d3e:	81 e0       	ldi	r24, 0x01	; 1
    1d40:	0e 94 9b 0c 	call	0x1936	; 0x1936 <LATCH_CONTROL>
    1d44:	41 e0       	ldi	r20, 0x01	; 1
    1d46:	06 c0       	rjmp	.+12     	; 0x1d54 <VALVE_CONTROL+0x1e6>
    1d48:	40 e0       	ldi	r20, 0x00	; 0
    1d4a:	64 e0       	ldi	r22, 0x04	; 4
    1d4c:	81 e0       	ldi	r24, 0x01	; 1
    1d4e:	0e 94 9b 0c 	call	0x1936	; 0x1936 <LATCH_CONTROL>
    1d52:	40 e0       	ldi	r20, 0x00	; 0
    1d54:	60 e0       	ldi	r22, 0x00	; 0
    1d56:	80 e0       	ldi	r24, 0x00	; 0
    1d58:	0e 94 9b 0c 	call	0x1936	; 0x1936 <LATCH_CONTROL>
    1d5c:	40 e0       	ldi	r20, 0x00	; 0
    1d5e:	0e c0       	rjmp	.+28     	; 0x1d7c <VALVE_CONTROL+0x20e>
    1d60:	41 e0       	ldi	r20, 0x01	; 1
    1d62:	61 e0       	ldi	r22, 0x01	; 1
    1d64:	80 e0       	ldi	r24, 0x00	; 0
    1d66:	0e 94 9b 0c 	call	0x1936	; 0x1936 <LATCH_CONTROL>
    1d6a:	40 e0       	ldi	r20, 0x00	; 0
    1d6c:	64 e0       	ldi	r22, 0x04	; 4
    1d6e:	81 e0       	ldi	r24, 0x01	; 1
    1d70:	0e 94 9b 0c 	call	0x1936	; 0x1936 <LATCH_CONTROL>
    1d74:	40 e0       	ldi	r20, 0x00	; 0
    1d76:	60 e0       	ldi	r22, 0x00	; 0
    1d78:	3e c0       	rjmp	.+124    	; 0x1df6 <VALVE_CONTROL+0x288>
    1d7a:	41 e0       	ldi	r20, 0x01	; 1
    1d7c:	61 e0       	ldi	r22, 0x01	; 1
    1d7e:	3b c0       	rjmp	.+118    	; 0x1df6 <VALVE_CONTROL+0x288>
    1d80:	86 2f       	mov	r24, r22
    1d82:	90 e0       	ldi	r25, 0x00	; 0
    1d84:	fc 01       	movw	r30, r24
    1d86:	31 97       	sbiw	r30, 0x01	; 1
    1d88:	e7 30       	cpi	r30, 0x07	; 7
    1d8a:	f1 05       	cpc	r31, r1
    1d8c:	c8 f5       	brcc	.+114    	; 0x1e00 <VALVE_CONTROL+0x292>
    1d8e:	ee 59       	subi	r30, 0x9E	; 158
    1d90:	ff 4f       	sbci	r31, 0xFF	; 255
    1d92:	0c 94 fa 1c 	jmp	0x39f4	; 0x39f4 <__tablejump2__>
    1d96:	41 e0       	ldi	r20, 0x01	; 1
    1d98:	62 e0       	ldi	r22, 0x02	; 2
    1d9a:	80 e0       	ldi	r24, 0x00	; 0
    1d9c:	0e 94 9b 0c 	call	0x1936	; 0x1936 <LATCH_CONTROL>
    1da0:	40 e0       	ldi	r20, 0x00	; 0
    1da2:	63 e0       	ldi	r22, 0x03	; 3
    1da4:	80 e0       	ldi	r24, 0x00	; 0
    1da6:	0e 94 9b 0c 	call	0x1936	; 0x1936 <LATCH_CONTROL>
    1daa:	23 c0       	rjmp	.+70     	; 0x1df2 <VALVE_CONTROL+0x284>
    1dac:	40 e0       	ldi	r20, 0x00	; 0
    1dae:	62 e0       	ldi	r22, 0x02	; 2
    1db0:	22 c0       	rjmp	.+68     	; 0x1df6 <VALVE_CONTROL+0x288>
    1db2:	41 e0       	ldi	r20, 0x01	; 1
    1db4:	62 e0       	ldi	r22, 0x02	; 2
    1db6:	80 e0       	ldi	r24, 0x00	; 0
    1db8:	0e 94 9b 0c 	call	0x1936	; 0x1936 <LATCH_CONTROL>
    1dbc:	41 e0       	ldi	r20, 0x01	; 1
    1dbe:	06 c0       	rjmp	.+12     	; 0x1dcc <VALVE_CONTROL+0x25e>
    1dc0:	40 e0       	ldi	r20, 0x00	; 0
    1dc2:	62 e0       	ldi	r22, 0x02	; 2
    1dc4:	80 e0       	ldi	r24, 0x00	; 0
    1dc6:	0e 94 9b 0c 	call	0x1936	; 0x1936 <LATCH_CONTROL>
    1dca:	40 e0       	ldi	r20, 0x00	; 0
    1dcc:	63 e0       	ldi	r22, 0x03	; 3
    1dce:	80 e0       	ldi	r24, 0x00	; 0
    1dd0:	0e 94 9b 0c 	call	0x1936	; 0x1936 <LATCH_CONTROL>
    1dd4:	40 e0       	ldi	r20, 0x00	; 0
    1dd6:	0e c0       	rjmp	.+28     	; 0x1df4 <VALVE_CONTROL+0x286>
    1dd8:	41 e0       	ldi	r20, 0x01	; 1
    1dda:	64 e0       	ldi	r22, 0x04	; 4
    1ddc:	80 e0       	ldi	r24, 0x00	; 0
    1dde:	0e 94 9b 0c 	call	0x1936	; 0x1936 <LATCH_CONTROL>
    1de2:	40 e0       	ldi	r20, 0x00	; 0
    1de4:	62 e0       	ldi	r22, 0x02	; 2
    1de6:	80 e0       	ldi	r24, 0x00	; 0
    1de8:	0e 94 9b 0c 	call	0x1936	; 0x1936 <LATCH_CONTROL>
    1dec:	40 e0       	ldi	r20, 0x00	; 0
    1dee:	63 e0       	ldi	r22, 0x03	; 3
    1df0:	02 c0       	rjmp	.+4      	; 0x1df6 <VALVE_CONTROL+0x288>
    1df2:	41 e0       	ldi	r20, 0x01	; 1
    1df4:	64 e0       	ldi	r22, 0x04	; 4
    1df6:	80 e0       	ldi	r24, 0x00	; 0
    1df8:	1f 91       	pop	r17
    1dfa:	0f 91       	pop	r16
    1dfc:	0c 94 9b 0c 	jmp	0x1936	; 0x1936 <LATCH_CONTROL>
    1e00:	1f 91       	pop	r17
    1e02:	0f 91       	pop	r16
    1e04:	08 95       	ret

00001e06 <CheckPressureMidWorking>:
    1e06:	cf 93       	push	r28
    1e08:	df 93       	push	r29
    1e0a:	85 e0       	ldi	r24, 0x05	; 5
    1e0c:	0e 94 a1 0a 	call	0x1542	; 0x1542 <pomiar>
    1e10:	0e 94 5a 0b 	call	0x16b4	; 0x16b4 <PRESSURE_CONVERT>
    1e14:	ec 01       	movw	r28, r24
    1e16:	80 91 52 08 	lds	r24, 0x0852
    1e1a:	81 30       	cpi	r24, 0x01	; 1
    1e1c:	a1 f0       	breq	.+40     	; 0x1e46 <CheckPressureMidWorking+0x40>
    1e1e:	20 91 06 01 	lds	r18, 0x0106
    1e22:	30 91 07 01 	lds	r19, 0x0107
    1e26:	80 91 04 01 	lds	r24, 0x0104
    1e2a:	90 91 05 01 	lds	r25, 0x0105
    1e2e:	a9 01       	movw	r20, r18
    1e30:	48 1b       	sub	r20, r24
    1e32:	59 0b       	sbc	r21, r25
    1e34:	c4 17       	cp	r28, r20
    1e36:	d5 07       	cpc	r29, r21
    1e38:	34 f0       	brlt	.+12     	; 0x1e46 <CheckPressureMidWorking+0x40>
    1e3a:	82 0f       	add	r24, r18
    1e3c:	93 1f       	adc	r25, r19
    1e3e:	8c 17       	cp	r24, r28
    1e40:	9d 07       	cpc	r25, r29
    1e42:	0c f0       	brlt	.+2      	; 0x1e46 <CheckPressureMidWorking+0x40>
    1e44:	75 c0       	rjmp	.+234    	; 0x1f30 <CheckPressureMidWorking+0x12a>
    1e46:	81 e0       	ldi	r24, 0x01	; 1
    1e48:	80 93 52 08 	sts	0x0852, r24
    1e4c:	0e 94 d9 18 	call	0x31b2	; 0x31b2 <LCD_ClearText>
    1e50:	20 91 06 01 	lds	r18, 0x0106
    1e54:	30 91 07 01 	lds	r19, 0x0107
    1e58:	80 91 04 01 	lds	r24, 0x0104
    1e5c:	90 91 05 01 	lds	r25, 0x0105
    1e60:	a9 01       	movw	r20, r18
    1e62:	48 1b       	sub	r20, r24
    1e64:	59 0b       	sbc	r21, r25
    1e66:	c4 17       	cp	r28, r20
    1e68:	d5 07       	cpc	r29, r21
    1e6a:	64 f5       	brge	.+88     	; 0x1ec4 <CheckPressureMidWorking+0xbe>
    1e6c:	61 e0       	ldi	r22, 0x01	; 1
    1e6e:	80 e0       	ldi	r24, 0x00	; 0
    1e70:	0e 94 ca 18 	call	0x3194	; 0x3194 <LCD_TextGoTo>
    1e74:	83 e1       	ldi	r24, 0x13	; 19
    1e76:	91 e0       	ldi	r25, 0x01	; 1
    1e78:	0e 94 43 19 	call	0x3286	; 0x3286 <LCD_WRiteString>
    1e7c:	63 e0       	ldi	r22, 0x03	; 3
    1e7e:	80 e0       	ldi	r24, 0x00	; 0
    1e80:	0e 94 ca 18 	call	0x3194	; 0x3194 <LCD_TextGoTo>
    1e84:	8f e2       	ldi	r24, 0x2F	; 47
    1e86:	91 e0       	ldi	r25, 0x01	; 1
    1e88:	0e 94 43 19 	call	0x3286	; 0x3286 <LCD_WRiteString>
    1e8c:	8f e4       	ldi	r24, 0x4F	; 79
    1e8e:	92 e0       	ldi	r25, 0x02	; 2
    1e90:	0e 94 43 19 	call	0x3286	; 0x3286 <LCD_WRiteString>
    1e94:	ce 01       	movw	r24, r28
    1e96:	0e 94 4f 19 	call	0x329e	; 0x329e <LCD_WriteINT>
    1e9a:	65 e0       	ldi	r22, 0x05	; 5
    1e9c:	80 e0       	ldi	r24, 0x00	; 0
    1e9e:	0e 94 ca 18 	call	0x3194	; 0x3194 <LCD_TextGoTo>
    1ea2:	8e e4       	ldi	r24, 0x4E	; 78
    1ea4:	91 e0       	ldi	r25, 0x01	; 1
    1ea6:	0e 94 43 19 	call	0x3286	; 0x3286 <LCD_WRiteString>
    1eaa:	80 91 06 01 	lds	r24, 0x0106
    1eae:	90 91 07 01 	lds	r25, 0x0107
    1eb2:	0e 94 4f 19 	call	0x329e	; 0x329e <LCD_WriteINT>
    1eb6:	65 e0       	ldi	r22, 0x05	; 5
    1eb8:	8a e1       	ldi	r24, 0x1A	; 26
    1eba:	0e 94 ca 18 	call	0x3194	; 0x3194 <LCD_TextGoTo>
    1ebe:	86 e6       	ldi	r24, 0x66	; 102
    1ec0:	91 e0       	ldi	r25, 0x01	; 1
    1ec2:	30 c0       	rjmp	.+96     	; 0x1f24 <CheckPressureMidWorking+0x11e>
    1ec4:	82 0f       	add	r24, r18
    1ec6:	93 1f       	adc	r25, r19
    1ec8:	8c 17       	cp	r24, r28
    1eca:	9d 07       	cpc	r25, r29
    1ecc:	7c f5       	brge	.+94     	; 0x1f2c <CheckPressureMidWorking+0x126>
    1ece:	61 e0       	ldi	r22, 0x01	; 1
    1ed0:	80 e0       	ldi	r24, 0x00	; 0
    1ed2:	0e 94 ca 18 	call	0x3194	; 0x3194 <LCD_TextGoTo>
    1ed6:	83 e1       	ldi	r24, 0x13	; 19
    1ed8:	91 e0       	ldi	r25, 0x01	; 1
    1eda:	0e 94 43 19 	call	0x3286	; 0x3286 <LCD_WRiteString>
    1ede:	63 e0       	ldi	r22, 0x03	; 3
    1ee0:	80 e0       	ldi	r24, 0x00	; 0
    1ee2:	0e 94 ca 18 	call	0x3194	; 0x3194 <LCD_TextGoTo>
    1ee6:	8d e6       	ldi	r24, 0x6D	; 109
    1ee8:	91 e0       	ldi	r25, 0x01	; 1
    1eea:	0e 94 43 19 	call	0x3286	; 0x3286 <LCD_WRiteString>
    1eee:	8f e4       	ldi	r24, 0x4F	; 79
    1ef0:	92 e0       	ldi	r25, 0x02	; 2
    1ef2:	0e 94 43 19 	call	0x3286	; 0x3286 <LCD_WRiteString>
    1ef6:	ce 01       	movw	r24, r28
    1ef8:	0e 94 4f 19 	call	0x329e	; 0x329e <LCD_WriteINT>
    1efc:	65 e0       	ldi	r22, 0x05	; 5
    1efe:	80 e0       	ldi	r24, 0x00	; 0
    1f00:	0e 94 ca 18 	call	0x3194	; 0x3194 <LCD_TextGoTo>
    1f04:	8d e8       	ldi	r24, 0x8D	; 141
    1f06:	91 e0       	ldi	r25, 0x01	; 1
    1f08:	0e 94 43 19 	call	0x3286	; 0x3286 <LCD_WRiteString>
    1f0c:	80 91 06 01 	lds	r24, 0x0106
    1f10:	90 91 07 01 	lds	r25, 0x0107
    1f14:	0e 94 4f 19 	call	0x329e	; 0x329e <LCD_WriteINT>
    1f18:	65 e0       	ldi	r22, 0x05	; 5
    1f1a:	8c e1       	ldi	r24, 0x1C	; 28
    1f1c:	0e 94 ca 18 	call	0x3194	; 0x3194 <LCD_TextGoTo>
    1f20:	87 e6       	ldi	r24, 0x67	; 103
    1f22:	91 e0       	ldi	r25, 0x01	; 1
    1f24:	df 91       	pop	r29
    1f26:	cf 91       	pop	r28
    1f28:	0c 94 43 19 	jmp	0x3286	; 0x3286 <LCD_WRiteString>
    1f2c:	10 92 52 08 	sts	0x0852, r1
    1f30:	df 91       	pop	r29
    1f32:	cf 91       	pop	r28
    1f34:	08 95       	ret

00001f36 <Intro>:
    1f36:	ef 92       	push	r14
    1f38:	0f 93       	push	r16
    1f3a:	80 91 5e 08 	lds	r24, 0x085E
    1f3e:	81 30       	cpi	r24, 0x01	; 1
    1f40:	09 f4       	brne	.+2      	; 0x1f44 <Intro+0xe>
    1f42:	57 c0       	rjmp	.+174    	; 0x1ff2 <Intro+0xbc>
    1f44:	e1 2c       	mov	r14, r1
    1f46:	01 e0       	ldi	r16, 0x01	; 1
    1f48:	27 e0       	ldi	r18, 0x07	; 7
    1f4a:	46 ea       	ldi	r20, 0xA6	; 166
    1f4c:	51 e0       	ldi	r21, 0x01	; 1
    1f4e:	67 e0       	ldi	r22, 0x07	; 7
    1f50:	70 e0       	ldi	r23, 0x00	; 0
    1f52:	82 e3       	ldi	r24, 0x32	; 50
    1f54:	90 e0       	ldi	r25, 0x00	; 0
    1f56:	0e 94 ba 07 	call	0xf74	; 0xf74 <mk_ssd1306_puts>
    1f5a:	21 e0       	ldi	r18, 0x01	; 1
    1f5c:	4a ea       	ldi	r20, 0xAA	; 170
    1f5e:	51 e0       	ldi	r21, 0x01	; 1
    1f60:	67 e0       	ldi	r22, 0x07	; 7
    1f62:	70 e0       	ldi	r23, 0x00	; 0
    1f64:	80 eb       	ldi	r24, 0xB0	; 176
    1f66:	90 e0       	ldi	r25, 0x00	; 0
    1f68:	0e 94 ba 07 	call	0xf74	; 0xf74 <mk_ssd1306_puts>
    1f6c:	21 e0       	ldi	r18, 0x01	; 1
    1f6e:	30 e0       	ldi	r19, 0x00	; 0
    1f70:	45 e0       	ldi	r20, 0x05	; 5
    1f72:	50 e0       	ldi	r21, 0x00	; 0
    1f74:	6b e0       	ldi	r22, 0x0B	; 11
    1f76:	70 e0       	ldi	r23, 0x00	; 0
    1f78:	82 eb       	ldi	r24, 0xB2	; 178
    1f7a:	90 e0       	ldi	r25, 0x00	; 0
    1f7c:	0e 94 b3 03 	call	0x766	; 0x766 <drawCircle>
    1f80:	2f ef       	ldi	r18, 0xFF	; 255
    1f82:	8f e5       	ldi	r24, 0x5F	; 95
    1f84:	94 e5       	ldi	r25, 0x54	; 84
    1f86:	21 50       	subi	r18, 0x01	; 1
    1f88:	80 40       	sbci	r24, 0x00	; 0
    1f8a:	90 40       	sbci	r25, 0x00	; 0
    1f8c:	e1 f7       	brne	.-8      	; 0x1f86 <Intro+0x50>
    1f8e:	00 c0       	rjmp	.+0      	; 0x1f90 <Intro+0x5a>
    1f90:	00 00       	nop
    1f92:	0e 94 d9 18 	call	0x31b2	; 0x31b2 <LCD_ClearText>
    1f96:	0e 94 2f 19 	call	0x325e	; 0x325e <LCD_ClearGraphic>
    1f9a:	60 e0       	ldi	r22, 0x00	; 0
    1f9c:	80 e0       	ldi	r24, 0x00	; 0
    1f9e:	0e 94 ca 18 	call	0x3194	; 0x3194 <LCD_TextGoTo>
    1fa2:	8c ea       	ldi	r24, 0xAC	; 172
    1fa4:	91 e0       	ldi	r25, 0x01	; 1
    1fa6:	0e 94 43 19 	call	0x3286	; 0x3286 <LCD_WRiteString>
    1faa:	62 e0       	ldi	r22, 0x02	; 2
    1fac:	80 e0       	ldi	r24, 0x00	; 0
    1fae:	0e 94 ca 18 	call	0x3194	; 0x3194 <LCD_TextGoTo>
    1fb2:	88 ec       	ldi	r24, 0xC8	; 200
    1fb4:	91 e0       	ldi	r25, 0x01	; 1
    1fb6:	0e 94 43 19 	call	0x3286	; 0x3286 <LCD_WRiteString>
    1fba:	64 e0       	ldi	r22, 0x04	; 4
    1fbc:	80 e0       	ldi	r24, 0x00	; 0
    1fbe:	0e 94 ca 18 	call	0x3194	; 0x3194 <LCD_TextGoTo>
    1fc2:	88 ee       	ldi	r24, 0xE8	; 232
    1fc4:	91 e0       	ldi	r25, 0x01	; 1
    1fc6:	0e 94 43 19 	call	0x3286	; 0x3286 <LCD_WRiteString>
    1fca:	66 e0       	ldi	r22, 0x06	; 6
    1fcc:	80 e0       	ldi	r24, 0x00	; 0
    1fce:	0e 94 ca 18 	call	0x3194	; 0x3194 <LCD_TextGoTo>
    1fd2:	88 e0       	ldi	r24, 0x08	; 8
    1fd4:	92 e0       	ldi	r25, 0x02	; 2
    1fd6:	0e 94 43 19 	call	0x3286	; 0x3286 <LCD_WRiteString>
    1fda:	2f ef       	ldi	r18, 0xFF	; 255
    1fdc:	8f eb       	ldi	r24, 0xBF	; 191
    1fde:	98 ea       	ldi	r25, 0xA8	; 168
    1fe0:	21 50       	subi	r18, 0x01	; 1
    1fe2:	80 40       	sbci	r24, 0x00	; 0
    1fe4:	90 40       	sbci	r25, 0x00	; 0
    1fe6:	e1 f7       	brne	.-8      	; 0x1fe0 <Intro+0xaa>
    1fe8:	00 c0       	rjmp	.+0      	; 0x1fea <Intro+0xb4>
    1fea:	00 00       	nop
    1fec:	81 e0       	ldi	r24, 0x01	; 1
    1fee:	80 93 5e 08 	sts	0x085E, r24
    1ff2:	0f 91       	pop	r16
    1ff4:	ef 90       	pop	r14
    1ff6:	08 95       	ret

00001ff8 <OnStartPressureTest>:
    1ff8:	cf 93       	push	r28
    1ffa:	df 93       	push	r29
    1ffc:	80 91 b5 08 	lds	r24, 0x08B5
    2000:	90 91 b6 08 	lds	r25, 0x08B6
    2004:	0e 94 5a 0b 	call	0x16b4	; 0x16b4 <PRESSURE_CONVERT>
    2008:	ec 01       	movw	r28, r24
    200a:	80 91 5b 08 	lds	r24, 0x085B
    200e:	91 e0       	ldi	r25, 0x01	; 1
    2010:	98 0f       	add	r25, r24
    2012:	90 93 5b 08 	sts	0x085B, r25
    2016:	82 31       	cpi	r24, 0x12	; 18
    2018:	48 f4       	brcc	.+18     	; 0x202c <OnStartPressureTest+0x34>
    201a:	0e 94 d9 18 	call	0x31b2	; 0x31b2 <LCD_ClearText>
    201e:	62 e0       	ldi	r22, 0x02	; 2
    2020:	8d e0       	ldi	r24, 0x0D	; 13
    2022:	0e 94 ca 18 	call	0x3194	; 0x3194 <LCD_TextGoTo>
    2026:	88 e2       	ldi	r24, 0x28	; 40
    2028:	92 e0       	ldi	r25, 0x02	; 2
    202a:	b3 c0       	rjmp	.+358    	; 0x2192 <OnStartPressureTest+0x19a>
    202c:	6f ef       	ldi	r22, 0xFF	; 255
    202e:	60 93 5b 08 	sts	0x085B, r22
    2032:	70 91 5a 08 	lds	r23, 0x085A
    2036:	71 30       	cpi	r23, 0x01	; 1
    2038:	a1 f0       	breq	.+40     	; 0x2062 <OnStartPressureTest+0x6a>
    203a:	20 91 06 01 	lds	r18, 0x0106
    203e:	30 91 07 01 	lds	r19, 0x0107
    2042:	80 91 04 01 	lds	r24, 0x0104
    2046:	90 91 05 01 	lds	r25, 0x0105
    204a:	a9 01       	movw	r20, r18
    204c:	48 1b       	sub	r20, r24
    204e:	59 0b       	sbc	r21, r25
    2050:	c4 17       	cp	r28, r20
    2052:	d5 07       	cpc	r29, r21
    2054:	34 f0       	brlt	.+12     	; 0x2062 <OnStartPressureTest+0x6a>
    2056:	82 0f       	add	r24, r18
    2058:	93 1f       	adc	r25, r19
    205a:	8c 17       	cp	r24, r28
    205c:	9d 07       	cpc	r25, r29
    205e:	0c f0       	brlt	.+2      	; 0x2062 <OnStartPressureTest+0x6a>
    2060:	73 c0       	rjmp	.+230    	; 0x2148 <OnStartPressureTest+0x150>
    2062:	81 e0       	ldi	r24, 0x01	; 1
    2064:	80 93 5a 08 	sts	0x085A, r24
    2068:	0e 94 d9 18 	call	0x31b2	; 0x31b2 <LCD_ClearText>
    206c:	20 91 06 01 	lds	r18, 0x0106
    2070:	30 91 07 01 	lds	r19, 0x0107
    2074:	80 91 04 01 	lds	r24, 0x0104
    2078:	90 91 05 01 	lds	r25, 0x0105
    207c:	a9 01       	movw	r20, r18
    207e:	48 1b       	sub	r20, r24
    2080:	59 0b       	sbc	r21, r25
    2082:	c4 17       	cp	r28, r20
    2084:	d5 07       	cpc	r29, r21
    2086:	64 f5       	brge	.+88     	; 0x20e0 <OnStartPressureTest+0xe8>
    2088:	61 e0       	ldi	r22, 0x01	; 1
    208a:	80 e0       	ldi	r24, 0x00	; 0
    208c:	0e 94 ca 18 	call	0x3194	; 0x3194 <LCD_TextGoTo>
    2090:	83 e1       	ldi	r24, 0x13	; 19
    2092:	91 e0       	ldi	r25, 0x01	; 1
    2094:	0e 94 43 19 	call	0x3286	; 0x3286 <LCD_WRiteString>
    2098:	63 e0       	ldi	r22, 0x03	; 3
    209a:	80 e0       	ldi	r24, 0x00	; 0
    209c:	0e 94 ca 18 	call	0x3194	; 0x3194 <LCD_TextGoTo>
    20a0:	8f e2       	ldi	r24, 0x2F	; 47
    20a2:	91 e0       	ldi	r25, 0x01	; 1
    20a4:	0e 94 43 19 	call	0x3286	; 0x3286 <LCD_WRiteString>
    20a8:	8f e4       	ldi	r24, 0x4F	; 79
    20aa:	92 e0       	ldi	r25, 0x02	; 2
    20ac:	0e 94 43 19 	call	0x3286	; 0x3286 <LCD_WRiteString>
    20b0:	ce 01       	movw	r24, r28
    20b2:	0e 94 4f 19 	call	0x329e	; 0x329e <LCD_WriteINT>
    20b6:	65 e0       	ldi	r22, 0x05	; 5
    20b8:	80 e0       	ldi	r24, 0x00	; 0
    20ba:	0e 94 ca 18 	call	0x3194	; 0x3194 <LCD_TextGoTo>
    20be:	8e e4       	ldi	r24, 0x4E	; 78
    20c0:	91 e0       	ldi	r25, 0x01	; 1
    20c2:	0e 94 43 19 	call	0x3286	; 0x3286 <LCD_WRiteString>
    20c6:	80 91 06 01 	lds	r24, 0x0106
    20ca:	90 91 07 01 	lds	r25, 0x0107
    20ce:	0e 94 4f 19 	call	0x329e	; 0x329e <LCD_WriteINT>
    20d2:	65 e0       	ldi	r22, 0x05	; 5
    20d4:	8a e1       	ldi	r24, 0x1A	; 26
    20d6:	0e 94 ca 18 	call	0x3194	; 0x3194 <LCD_TextGoTo>
    20da:	86 e6       	ldi	r24, 0x66	; 102
    20dc:	91 e0       	ldi	r25, 0x01	; 1
    20de:	59 c0       	rjmp	.+178    	; 0x2192 <OnStartPressureTest+0x19a>
    20e0:	82 0f       	add	r24, r18
    20e2:	93 1f       	adc	r25, r19
    20e4:	8c 17       	cp	r24, r28
    20e6:	9d 07       	cpc	r25, r29
    20e8:	64 f5       	brge	.+88     	; 0x2142 <OnStartPressureTest+0x14a>
    20ea:	61 e0       	ldi	r22, 0x01	; 1
    20ec:	80 e0       	ldi	r24, 0x00	; 0
    20ee:	0e 94 ca 18 	call	0x3194	; 0x3194 <LCD_TextGoTo>
    20f2:	83 e1       	ldi	r24, 0x13	; 19
    20f4:	91 e0       	ldi	r25, 0x01	; 1
    20f6:	0e 94 43 19 	call	0x3286	; 0x3286 <LCD_WRiteString>
    20fa:	63 e0       	ldi	r22, 0x03	; 3
    20fc:	80 e0       	ldi	r24, 0x00	; 0
    20fe:	0e 94 ca 18 	call	0x3194	; 0x3194 <LCD_TextGoTo>
    2102:	8d e6       	ldi	r24, 0x6D	; 109
    2104:	91 e0       	ldi	r25, 0x01	; 1
    2106:	0e 94 43 19 	call	0x3286	; 0x3286 <LCD_WRiteString>
    210a:	8f e4       	ldi	r24, 0x4F	; 79
    210c:	92 e0       	ldi	r25, 0x02	; 2
    210e:	0e 94 43 19 	call	0x3286	; 0x3286 <LCD_WRiteString>
    2112:	ce 01       	movw	r24, r28
    2114:	0e 94 4f 19 	call	0x329e	; 0x329e <LCD_WriteINT>
    2118:	65 e0       	ldi	r22, 0x05	; 5
    211a:	80 e0       	ldi	r24, 0x00	; 0
    211c:	0e 94 ca 18 	call	0x3194	; 0x3194 <LCD_TextGoTo>
    2120:	8d e8       	ldi	r24, 0x8D	; 141
    2122:	91 e0       	ldi	r25, 0x01	; 1
    2124:	0e 94 43 19 	call	0x3286	; 0x3286 <LCD_WRiteString>
    2128:	80 91 06 01 	lds	r24, 0x0106
    212c:	90 91 07 01 	lds	r25, 0x0107
    2130:	0e 94 4f 19 	call	0x329e	; 0x329e <LCD_WriteINT>
    2134:	65 e0       	ldi	r22, 0x05	; 5
    2136:	8c e1       	ldi	r24, 0x1C	; 28
    2138:	0e 94 ca 18 	call	0x3194	; 0x3194 <LCD_TextGoTo>
    213c:	87 e6       	ldi	r24, 0x67	; 103
    213e:	91 e0       	ldi	r25, 0x01	; 1
    2140:	28 c0       	rjmp	.+80     	; 0x2192 <OnStartPressureTest+0x19a>
    2142:	10 92 5a 08 	sts	0x085A, r1
    2146:	30 c0       	rjmp	.+96     	; 0x21a8 <OnStartPressureTest+0x1b0>
    2148:	71 11       	cpse	r23, r1
    214a:	2e c0       	rjmp	.+92     	; 0x21a8 <OnStartPressureTest+0x1b0>
    214c:	80 91 59 08 	lds	r24, 0x0859
    2150:	91 e0       	ldi	r25, 0x01	; 1
    2152:	98 0f       	add	r25, r24
    2154:	90 93 59 08 	sts	0x0859, r25
    2158:	88 30       	cpi	r24, 0x08	; 8
    215a:	f0 f4       	brcc	.+60     	; 0x2198 <OnStartPressureTest+0x1a0>
    215c:	0e 94 d9 18 	call	0x31b2	; 0x31b2 <LCD_ClearText>
    2160:	62 e0       	ldi	r22, 0x02	; 2
    2162:	80 e0       	ldi	r24, 0x00	; 0
    2164:	0e 94 ca 18 	call	0x3194	; 0x3194 <LCD_TextGoTo>
    2168:	85 e3       	ldi	r24, 0x35	; 53
    216a:	92 e0       	ldi	r25, 0x02	; 2
    216c:	0e 94 43 19 	call	0x3286	; 0x3286 <LCD_WRiteString>
    2170:	ce 01       	movw	r24, r28
    2172:	0e 94 4f 19 	call	0x329e	; 0x329e <LCD_WriteINT>
    2176:	62 e0       	ldi	r22, 0x02	; 2
    2178:	81 e2       	ldi	r24, 0x21	; 33
    217a:	0e 94 ca 18 	call	0x3194	; 0x3194 <LCD_TextGoTo>
    217e:	87 e6       	ldi	r24, 0x67	; 103
    2180:	91 e0       	ldi	r25, 0x01	; 1
    2182:	0e 94 43 19 	call	0x3286	; 0x3286 <LCD_WRiteString>
    2186:	64 e0       	ldi	r22, 0x04	; 4
    2188:	80 e0       	ldi	r24, 0x00	; 0
    218a:	0e 94 ca 18 	call	0x3194	; 0x3194 <LCD_TextGoTo>
    218e:	83 e5       	ldi	r24, 0x53	; 83
    2190:	92 e0       	ldi	r25, 0x02	; 2
    2192:	0e 94 43 19 	call	0x3286	; 0x3286 <LCD_WRiteString>
    2196:	08 c0       	rjmp	.+16     	; 0x21a8 <OnStartPressureTest+0x1b0>
    2198:	60 93 59 08 	sts	0x0859, r22
    219c:	10 92 5a 08 	sts	0x085A, r1
    21a0:	0e 94 d9 18 	call	0x31b2	; 0x31b2 <LCD_ClearText>
    21a4:	81 e0       	ldi	r24, 0x01	; 1
    21a6:	01 c0       	rjmp	.+2      	; 0x21aa <OnStartPressureTest+0x1b2>
    21a8:	80 e0       	ldi	r24, 0x00	; 0
    21aa:	df 91       	pop	r29
    21ac:	cf 91       	pop	r28
    21ae:	08 95       	ret

000021b0 <InitTests>:
    21b0:	80 91 5f 08 	lds	r24, 0x085F
    21b4:	81 30       	cpi	r24, 0x01	; 1
    21b6:	09 f4       	brne	.+2      	; 0x21ba <InitTests+0xa>
    21b8:	b7 c1       	rjmp	.+878    	; 0x2528 <InitTests+0x378>
    21ba:	80 91 5d 08 	lds	r24, 0x085D
    21be:	81 11       	cpse	r24, r1
    21c0:	16 c0       	rjmp	.+44     	; 0x21ee <InitTests+0x3e>
    21c2:	80 91 5c 08 	lds	r24, 0x085C
    21c6:	91 e0       	ldi	r25, 0x01	; 1
    21c8:	98 0f       	add	r25, r24
    21ca:	90 93 5c 08 	sts	0x085C, r25
    21ce:	85 30       	cpi	r24, 0x05	; 5
    21d0:	48 f4       	brcc	.+18     	; 0x21e4 <InitTests+0x34>
    21d2:	0e 94 d9 18 	call	0x31b2	; 0x31b2 <LCD_ClearText>
    21d6:	63 e0       	ldi	r22, 0x03	; 3
    21d8:	80 e0       	ldi	r24, 0x00	; 0
    21da:	0e 94 ca 18 	call	0x3194	; 0x3194 <LCD_TextGoTo>
    21de:	84 e7       	ldi	r24, 0x74	; 116
    21e0:	92 e0       	ldi	r25, 0x02	; 2
    21e2:	97 c1       	rjmp	.+814    	; 0x2512 <InitTests+0x362>
    21e4:	10 92 5c 08 	sts	0x085C, r1
    21e8:	81 e0       	ldi	r24, 0x01	; 1
    21ea:	80 93 5d 08 	sts	0x085D, r24
    21ee:	0c 99       	sbic	0x01, 4	; 1
    21f0:	30 c0       	rjmp	.+96     	; 0x2252 <InitTests+0xa2>
    21f2:	62 e0       	ldi	r22, 0x02	; 2
    21f4:	80 e0       	ldi	r24, 0x00	; 0
    21f6:	0e 94 ca 18 	call	0x3194	; 0x3194 <LCD_TextGoTo>
    21fa:	8f e8       	ldi	r24, 0x8F	; 143
    21fc:	92 e0       	ldi	r25, 0x02	; 2
    21fe:	0e 94 43 19 	call	0x3286	; 0x3286 <LCD_WRiteString>
    2202:	64 e0       	ldi	r22, 0x04	; 4
    2204:	80 e0       	ldi	r24, 0x00	; 0
    2206:	0e 94 ca 18 	call	0x3194	; 0x3194 <LCD_TextGoTo>
    220a:	8b ea       	ldi	r24, 0xAB	; 171
    220c:	92 e0       	ldi	r25, 0x02	; 2
    220e:	0e 94 43 19 	call	0x3286	; 0x3286 <LCD_WRiteString>
    2212:	0c 99       	sbic	0x01, 4	; 1
    2214:	03 c0       	rjmp	.+6      	; 0x221c <InitTests+0x6c>
    2216:	0e 94 2a 0c 	call	0x1854	; 0x1854 <BEEP_ERROR>
    221a:	fb cf       	rjmp	.-10     	; 0x2212 <InitTests+0x62>
    221c:	0e 94 d9 18 	call	0x31b2	; 0x31b2 <LCD_ClearText>
    2220:	62 e0       	ldi	r22, 0x02	; 2
    2222:	80 e0       	ldi	r24, 0x00	; 0
    2224:	0e 94 ca 18 	call	0x3194	; 0x3194 <LCD_TextGoTo>
    2228:	8b ec       	ldi	r24, 0xCB	; 203
    222a:	92 e0       	ldi	r25, 0x02	; 2
    222c:	0e 94 43 19 	call	0x3286	; 0x3286 <LCD_WRiteString>
    2230:	64 e0       	ldi	r22, 0x04	; 4
    2232:	80 e0       	ldi	r24, 0x00	; 0
    2234:	0e 94 ca 18 	call	0x3194	; 0x3194 <LCD_TextGoTo>
    2238:	8e ee       	ldi	r24, 0xEE	; 238
    223a:	92 e0       	ldi	r25, 0x02	; 2
    223c:	0e 94 43 19 	call	0x3286	; 0x3286 <LCD_WRiteString>
    2240:	2f ef       	ldi	r18, 0xFF	; 255
    2242:	8f e5       	ldi	r24, 0x5F	; 95
    2244:	94 e5       	ldi	r25, 0x54	; 84
    2246:	21 50       	subi	r18, 0x01	; 1
    2248:	80 40       	sbci	r24, 0x00	; 0
    224a:	90 40       	sbci	r25, 0x00	; 0
    224c:	e1 f7       	brne	.-8      	; 0x2246 <InitTests+0x96>
    224e:	00 c0       	rjmp	.+0      	; 0x2250 <InitTests+0xa0>
    2250:	00 00       	nop
    2252:	80 91 5d 08 	lds	r24, 0x085D
    2256:	81 30       	cpi	r24, 0x01	; 1
    2258:	09 f0       	breq	.+2      	; 0x225c <InitTests+0xac>
    225a:	97 c0       	rjmp	.+302    	; 0x238a <InitTests+0x1da>
    225c:	80 91 5c 08 	lds	r24, 0x085C
    2260:	91 e0       	ldi	r25, 0x01	; 1
    2262:	98 0f       	add	r25, r24
    2264:	90 93 5c 08 	sts	0x085C, r25
    2268:	8c 30       	cpi	r24, 0x0C	; 12
    226a:	08 f0       	brcs	.+2      	; 0x226e <InitTests+0xbe>
    226c:	6e c0       	rjmp	.+220    	; 0x234a <InitTests+0x19a>
    226e:	0e 94 d9 18 	call	0x31b2	; 0x31b2 <LCD_ClearText>
    2272:	63 e0       	ldi	r22, 0x03	; 3
    2274:	80 e0       	ldi	r24, 0x00	; 0
    2276:	0e 94 ca 18 	call	0x3194	; 0x3194 <LCD_TextGoTo>
    227a:	8e e0       	ldi	r24, 0x0E	; 14
    227c:	93 e0       	ldi	r25, 0x03	; 3
    227e:	0e 94 43 19 	call	0x3286	; 0x3286 <LCD_WRiteString>
    2282:	80 91 5c 08 	lds	r24, 0x085C
    2286:	83 30       	cpi	r24, 0x03	; 3
    2288:	28 f4       	brcc	.+10     	; 0x2294 <InitTests+0xe4>
    228a:	41 e0       	ldi	r20, 0x01	; 1
    228c:	65 e0       	ldi	r22, 0x05	; 5
    228e:	81 e0       	ldi	r24, 0x01	; 1
    2290:	0e 94 9b 0c 	call	0x1936	; 0x1936 <LATCH_CONTROL>
    2294:	80 91 5c 08 	lds	r24, 0x085C
    2298:	83 50       	subi	r24, 0x03	; 3
    229a:	82 30       	cpi	r24, 0x02	; 2
    229c:	50 f4       	brcc	.+20     	; 0x22b2 <InitTests+0x102>
    229e:	40 e0       	ldi	r20, 0x00	; 0
    22a0:	65 e0       	ldi	r22, 0x05	; 5
    22a2:	81 e0       	ldi	r24, 0x01	; 1
    22a4:	0e 94 9b 0c 	call	0x1936	; 0x1936 <LATCH_CONTROL>
    22a8:	41 e0       	ldi	r20, 0x01	; 1
    22aa:	66 e0       	ldi	r22, 0x06	; 6
    22ac:	81 e0       	ldi	r24, 0x01	; 1
    22ae:	0e 94 9b 0c 	call	0x1936	; 0x1936 <LATCH_CONTROL>
    22b2:	80 91 5c 08 	lds	r24, 0x085C
    22b6:	85 50       	subi	r24, 0x05	; 5
    22b8:	82 30       	cpi	r24, 0x02	; 2
    22ba:	50 f4       	brcc	.+20     	; 0x22d0 <InitTests+0x120>
    22bc:	40 e0       	ldi	r20, 0x00	; 0
    22be:	66 e0       	ldi	r22, 0x06	; 6
    22c0:	81 e0       	ldi	r24, 0x01	; 1
    22c2:	0e 94 9b 0c 	call	0x1936	; 0x1936 <LATCH_CONTROL>
    22c6:	41 e0       	ldi	r20, 0x01	; 1
    22c8:	65 e0       	ldi	r22, 0x05	; 5
    22ca:	80 e0       	ldi	r24, 0x00	; 0
    22cc:	0e 94 9b 0c 	call	0x1936	; 0x1936 <LATCH_CONTROL>
    22d0:	80 91 5c 08 	lds	r24, 0x085C
    22d4:	87 50       	subi	r24, 0x07	; 7
    22d6:	82 30       	cpi	r24, 0x02	; 2
    22d8:	50 f4       	brcc	.+20     	; 0x22ee <InitTests+0x13e>
    22da:	40 e0       	ldi	r20, 0x00	; 0
    22dc:	65 e0       	ldi	r22, 0x05	; 5
    22de:	80 e0       	ldi	r24, 0x00	; 0
    22e0:	0e 94 9b 0c 	call	0x1936	; 0x1936 <LATCH_CONTROL>
    22e4:	41 e0       	ldi	r20, 0x01	; 1
    22e6:	66 e0       	ldi	r22, 0x06	; 6
    22e8:	80 e0       	ldi	r24, 0x00	; 0
    22ea:	0e 94 9b 0c 	call	0x1936	; 0x1936 <LATCH_CONTROL>
    22ee:	80 91 5c 08 	lds	r24, 0x085C
    22f2:	89 50       	subi	r24, 0x09	; 9
    22f4:	82 30       	cpi	r24, 0x02	; 2
    22f6:	50 f4       	brcc	.+20     	; 0x230c <InitTests+0x15c>
    22f8:	40 e0       	ldi	r20, 0x00	; 0
    22fa:	66 e0       	ldi	r22, 0x06	; 6
    22fc:	80 e0       	ldi	r24, 0x00	; 0
    22fe:	0e 94 9b 0c 	call	0x1936	; 0x1936 <LATCH_CONTROL>
    2302:	41 e0       	ldi	r20, 0x01	; 1
    2304:	67 e0       	ldi	r22, 0x07	; 7
    2306:	80 e0       	ldi	r24, 0x00	; 0
    2308:	0e 94 9b 0c 	call	0x1936	; 0x1936 <LATCH_CONTROL>
    230c:	80 91 5c 08 	lds	r24, 0x085C
    2310:	8b 30       	cpi	r24, 0x0B	; 11
    2312:	08 f4       	brcc	.+2      	; 0x2316 <InitTests+0x166>
    2314:	00 c1       	rjmp	.+512    	; 0x2516 <InitTests+0x366>
    2316:	41 e0       	ldi	r20, 0x01	; 1
    2318:	65 e0       	ldi	r22, 0x05	; 5
    231a:	81 e0       	ldi	r24, 0x01	; 1
    231c:	0e 94 9b 0c 	call	0x1936	; 0x1936 <LATCH_CONTROL>
    2320:	41 e0       	ldi	r20, 0x01	; 1
    2322:	66 e0       	ldi	r22, 0x06	; 6
    2324:	81 e0       	ldi	r24, 0x01	; 1
    2326:	0e 94 9b 0c 	call	0x1936	; 0x1936 <LATCH_CONTROL>
    232a:	41 e0       	ldi	r20, 0x01	; 1
    232c:	65 e0       	ldi	r22, 0x05	; 5
    232e:	80 e0       	ldi	r24, 0x00	; 0
    2330:	0e 94 9b 0c 	call	0x1936	; 0x1936 <LATCH_CONTROL>
    2334:	41 e0       	ldi	r20, 0x01	; 1
    2336:	66 e0       	ldi	r22, 0x06	; 6
    2338:	80 e0       	ldi	r24, 0x00	; 0
    233a:	0e 94 9b 0c 	call	0x1936	; 0x1936 <LATCH_CONTROL>
    233e:	41 e0       	ldi	r20, 0x01	; 1
    2340:	67 e0       	ldi	r22, 0x07	; 7
    2342:	80 e0       	ldi	r24, 0x00	; 0
    2344:	0e 94 9b 0c 	call	0x1936	; 0x1936 <LATCH_CONTROL>
    2348:	e6 c0       	rjmp	.+460    	; 0x2516 <InitTests+0x366>
    234a:	40 e0       	ldi	r20, 0x00	; 0
    234c:	65 e0       	ldi	r22, 0x05	; 5
    234e:	81 e0       	ldi	r24, 0x01	; 1
    2350:	0e 94 9b 0c 	call	0x1936	; 0x1936 <LATCH_CONTROL>
    2354:	40 e0       	ldi	r20, 0x00	; 0
    2356:	66 e0       	ldi	r22, 0x06	; 6
    2358:	81 e0       	ldi	r24, 0x01	; 1
    235a:	0e 94 9b 0c 	call	0x1936	; 0x1936 <LATCH_CONTROL>
    235e:	40 e0       	ldi	r20, 0x00	; 0
    2360:	65 e0       	ldi	r22, 0x05	; 5
    2362:	80 e0       	ldi	r24, 0x00	; 0
    2364:	0e 94 9b 0c 	call	0x1936	; 0x1936 <LATCH_CONTROL>
    2368:	40 e0       	ldi	r20, 0x00	; 0
    236a:	66 e0       	ldi	r22, 0x06	; 6
    236c:	80 e0       	ldi	r24, 0x00	; 0
    236e:	0e 94 9b 0c 	call	0x1936	; 0x1936 <LATCH_CONTROL>
    2372:	40 e0       	ldi	r20, 0x00	; 0
    2374:	67 e0       	ldi	r22, 0x07	; 7
    2376:	80 e0       	ldi	r24, 0x00	; 0
    2378:	0e 94 9b 0c 	call	0x1936	; 0x1936 <LATCH_CONTROL>
    237c:	10 92 5c 08 	sts	0x085C, r1
    2380:	80 91 5d 08 	lds	r24, 0x085D
    2384:	8f 5f       	subi	r24, 0xFF	; 255
    2386:	80 93 5d 08 	sts	0x085D, r24
    238a:	80 91 5d 08 	lds	r24, 0x085D
    238e:	82 30       	cpi	r24, 0x02	; 2
    2390:	09 f0       	breq	.+2      	; 0x2394 <InitTests+0x1e4>
    2392:	8b c0       	rjmp	.+278    	; 0x24aa <InitTests+0x2fa>
    2394:	80 91 5c 08 	lds	r24, 0x085C
    2398:	91 e0       	ldi	r25, 0x01	; 1
    239a:	98 0f       	add	r25, r24
    239c:	90 93 5c 08 	sts	0x085C, r25
    23a0:	8c 30       	cpi	r24, 0x0C	; 12
    23a2:	08 f0       	brcs	.+2      	; 0x23a6 <InitTests+0x1f6>
    23a4:	66 c0       	rjmp	.+204    	; 0x2472 <InitTests+0x2c2>
    23a6:	0e 94 d9 18 	call	0x31b2	; 0x31b2 <LCD_ClearText>
    23aa:	63 e0       	ldi	r22, 0x03	; 3
    23ac:	80 e0       	ldi	r24, 0x00	; 0
    23ae:	0e 94 ca 18 	call	0x3194	; 0x3194 <LCD_TextGoTo>
    23b2:	8c e2       	ldi	r24, 0x2C	; 44
    23b4:	93 e0       	ldi	r25, 0x03	; 3
    23b6:	0e 94 43 19 	call	0x3286	; 0x3286 <LCD_WRiteString>
    23ba:	80 91 5c 08 	lds	r24, 0x085C
    23be:	83 30       	cpi	r24, 0x03	; 3
    23c0:	28 f4       	brcc	.+10     	; 0x23cc <InitTests+0x21c>
    23c2:	41 e0       	ldi	r20, 0x01	; 1
    23c4:	67 e0       	ldi	r22, 0x07	; 7
    23c6:	81 e0       	ldi	r24, 0x01	; 1
    23c8:	0e 94 9b 0c 	call	0x1936	; 0x1936 <LATCH_CONTROL>
    23cc:	80 91 5c 08 	lds	r24, 0x085C
    23d0:	83 50       	subi	r24, 0x03	; 3
    23d2:	82 30       	cpi	r24, 0x02	; 2
    23d4:	50 f4       	brcc	.+20     	; 0x23ea <InitTests+0x23a>
    23d6:	40 e0       	ldi	r20, 0x00	; 0
    23d8:	67 e0       	ldi	r22, 0x07	; 7
    23da:	81 e0       	ldi	r24, 0x01	; 1
    23dc:	0e 94 9b 0c 	call	0x1936	; 0x1936 <LATCH_CONTROL>
    23e0:	41 e0       	ldi	r20, 0x01	; 1
    23e2:	65 e0       	ldi	r22, 0x05	; 5
    23e4:	82 e0       	ldi	r24, 0x02	; 2
    23e6:	0e 94 9b 0c 	call	0x1936	; 0x1936 <LATCH_CONTROL>
    23ea:	80 91 5c 08 	lds	r24, 0x085C
    23ee:	85 50       	subi	r24, 0x05	; 5
    23f0:	82 30       	cpi	r24, 0x02	; 2
    23f2:	50 f4       	brcc	.+20     	; 0x2408 <InitTests+0x258>
    23f4:	40 e0       	ldi	r20, 0x00	; 0
    23f6:	65 e0       	ldi	r22, 0x05	; 5
    23f8:	82 e0       	ldi	r24, 0x02	; 2
    23fa:	0e 94 9b 0c 	call	0x1936	; 0x1936 <LATCH_CONTROL>
    23fe:	41 e0       	ldi	r20, 0x01	; 1
    2400:	66 e0       	ldi	r22, 0x06	; 6
    2402:	82 e0       	ldi	r24, 0x02	; 2
    2404:	0e 94 9b 0c 	call	0x1936	; 0x1936 <LATCH_CONTROL>
    2408:	80 91 5c 08 	lds	r24, 0x085C
    240c:	87 50       	subi	r24, 0x07	; 7
    240e:	82 30       	cpi	r24, 0x02	; 2
    2410:	50 f4       	brcc	.+20     	; 0x2426 <InitTests+0x276>
    2412:	40 e0       	ldi	r20, 0x00	; 0
    2414:	66 e0       	ldi	r22, 0x06	; 6
    2416:	82 e0       	ldi	r24, 0x02	; 2
    2418:	0e 94 9b 0c 	call	0x1936	; 0x1936 <LATCH_CONTROL>
    241c:	41 e0       	ldi	r20, 0x01	; 1
    241e:	67 e0       	ldi	r22, 0x07	; 7
    2420:	82 e0       	ldi	r24, 0x02	; 2
    2422:	0e 94 9b 0c 	call	0x1936	; 0x1936 <LATCH_CONTROL>
    2426:	80 91 5c 08 	lds	r24, 0x085C
    242a:	89 50       	subi	r24, 0x09	; 9
    242c:	82 30       	cpi	r24, 0x02	; 2
    242e:	30 f4       	brcc	.+12     	; 0x243c <InitTests+0x28c>
    2430:	40 e0       	ldi	r20, 0x00	; 0
    2432:	67 e0       	ldi	r22, 0x07	; 7
    2434:	82 e0       	ldi	r24, 0x02	; 2
    2436:	0e 94 9b 0c 	call	0x1936	; 0x1936 <LATCH_CONTROL>
    243a:	c6 9a       	sbi	0x18, 6	; 24
    243c:	80 91 5c 08 	lds	r24, 0x085C
    2440:	8b 30       	cpi	r24, 0x0B	; 11
    2442:	08 f4       	brcc	.+2      	; 0x2446 <InitTests+0x296>
    2444:	68 c0       	rjmp	.+208    	; 0x2516 <InitTests+0x366>
    2446:	41 e0       	ldi	r20, 0x01	; 1
    2448:	67 e0       	ldi	r22, 0x07	; 7
    244a:	81 e0       	ldi	r24, 0x01	; 1
    244c:	0e 94 9b 0c 	call	0x1936	; 0x1936 <LATCH_CONTROL>
    2450:	41 e0       	ldi	r20, 0x01	; 1
    2452:	65 e0       	ldi	r22, 0x05	; 5
    2454:	82 e0       	ldi	r24, 0x02	; 2
    2456:	0e 94 9b 0c 	call	0x1936	; 0x1936 <LATCH_CONTROL>
    245a:	41 e0       	ldi	r20, 0x01	; 1
    245c:	66 e0       	ldi	r22, 0x06	; 6
    245e:	82 e0       	ldi	r24, 0x02	; 2
    2460:	0e 94 9b 0c 	call	0x1936	; 0x1936 <LATCH_CONTROL>
    2464:	41 e0       	ldi	r20, 0x01	; 1
    2466:	67 e0       	ldi	r22, 0x07	; 7
    2468:	82 e0       	ldi	r24, 0x02	; 2
    246a:	0e 94 9b 0c 	call	0x1936	; 0x1936 <LATCH_CONTROL>
    246e:	c6 9a       	sbi	0x18, 6	; 24
    2470:	52 c0       	rjmp	.+164    	; 0x2516 <InitTests+0x366>
    2472:	40 e0       	ldi	r20, 0x00	; 0
    2474:	67 e0       	ldi	r22, 0x07	; 7
    2476:	81 e0       	ldi	r24, 0x01	; 1
    2478:	0e 94 9b 0c 	call	0x1936	; 0x1936 <LATCH_CONTROL>
    247c:	40 e0       	ldi	r20, 0x00	; 0
    247e:	65 e0       	ldi	r22, 0x05	; 5
    2480:	82 e0       	ldi	r24, 0x02	; 2
    2482:	0e 94 9b 0c 	call	0x1936	; 0x1936 <LATCH_CONTROL>
    2486:	40 e0       	ldi	r20, 0x00	; 0
    2488:	66 e0       	ldi	r22, 0x06	; 6
    248a:	82 e0       	ldi	r24, 0x02	; 2
    248c:	0e 94 9b 0c 	call	0x1936	; 0x1936 <LATCH_CONTROL>
    2490:	40 e0       	ldi	r20, 0x00	; 0
    2492:	67 e0       	ldi	r22, 0x07	; 7
    2494:	82 e0       	ldi	r24, 0x02	; 2
    2496:	0e 94 9b 0c 	call	0x1936	; 0x1936 <LATCH_CONTROL>
    249a:	c6 98       	cbi	0x18, 6	; 24
    249c:	10 92 5c 08 	sts	0x085C, r1
    24a0:	80 91 5d 08 	lds	r24, 0x085D
    24a4:	8f 5f       	subi	r24, 0xFF	; 255
    24a6:	80 93 5d 08 	sts	0x085D, r24
    24aa:	80 91 5d 08 	lds	r24, 0x085D
    24ae:	83 30       	cpi	r24, 0x03	; 3
    24b0:	e1 f4       	brne	.+56     	; 0x24ea <InitTests+0x33a>
    24b2:	80 91 5c 08 	lds	r24, 0x085C
    24b6:	91 e0       	ldi	r25, 0x01	; 1
    24b8:	98 0f       	add	r25, r24
    24ba:	90 93 5c 08 	sts	0x085C, r25
    24be:	85 30       	cpi	r24, 0x05	; 5
    24c0:	60 f4       	brcc	.+24     	; 0x24da <InitTests+0x32a>
    24c2:	0e 94 d9 18 	call	0x31b2	; 0x31b2 <LCD_ClearText>
    24c6:	63 e0       	ldi	r22, 0x03	; 3
    24c8:	80 e0       	ldi	r24, 0x00	; 0
    24ca:	0e 94 ca 18 	call	0x3194	; 0x3194 <LCD_TextGoTo>
    24ce:	89 e4       	ldi	r24, 0x49	; 73
    24d0:	93 e0       	ldi	r25, 0x03	; 3
    24d2:	0e 94 43 19 	call	0x3286	; 0x3286 <LCD_WRiteString>
    24d6:	c7 9a       	sbi	0x18, 7	; 24
    24d8:	1e c0       	rjmp	.+60     	; 0x2516 <InitTests+0x366>
    24da:	c7 98       	cbi	0x18, 7	; 24
    24dc:	10 92 5c 08 	sts	0x085C, r1
    24e0:	80 91 5d 08 	lds	r24, 0x085D
    24e4:	8f 5f       	subi	r24, 0xFF	; 255
    24e6:	80 93 5d 08 	sts	0x085D, r24
    24ea:	80 91 5d 08 	lds	r24, 0x085D
    24ee:	84 30       	cpi	r24, 0x04	; 4
    24f0:	c9 f4       	brne	.+50     	; 0x2524 <InitTests+0x374>
    24f2:	80 91 5c 08 	lds	r24, 0x085C
    24f6:	91 e0       	ldi	r25, 0x01	; 1
    24f8:	98 0f       	add	r25, r24
    24fa:	90 93 5c 08 	sts	0x085C, r25
    24fe:	85 30       	cpi	r24, 0x05	; 5
    2500:	60 f4       	brcc	.+24     	; 0x251a <InitTests+0x36a>
    2502:	0e 94 d9 18 	call	0x31b2	; 0x31b2 <LCD_ClearText>
    2506:	63 e0       	ldi	r22, 0x03	; 3
    2508:	80 e0       	ldi	r24, 0x00	; 0
    250a:	0e 94 ca 18 	call	0x3194	; 0x3194 <LCD_TextGoTo>
    250e:	84 e6       	ldi	r24, 0x64	; 100
    2510:	93 e0       	ldi	r25, 0x03	; 3
    2512:	0e 94 43 19 	call	0x3286	; 0x3286 <LCD_WRiteString>
    2516:	80 e0       	ldi	r24, 0x00	; 0
    2518:	08 95       	ret
    251a:	10 92 5c 08 	sts	0x085C, r1
    251e:	85 e0       	ldi	r24, 0x05	; 5
    2520:	80 93 5d 08 	sts	0x085D, r24
    2524:	0c 94 fc 0f 	jmp	0x1ff8	; 0x1ff8 <OnStartPressureTest>
    2528:	81 e0       	ldi	r24, 0x01	; 1
    252a:	08 95       	ret

0000252c <main>:
    252c:	83 b7       	in	r24, 0x33	; 51
    252e:	88 60       	ori	r24, 0x08	; 8
    2530:	83 bf       	out	0x33, r24	; 51
    2532:	83 b7       	in	r24, 0x33	; 51
    2534:	87 60       	ori	r24, 0x07	; 7
    2536:	83 bf       	out	0x33, r24	; 51
    2538:	84 eb       	ldi	r24, 0xB4	; 180
    253a:	81 bf       	out	0x31, r24	; 49
    253c:	87 b7       	in	r24, 0x37	; 55
    253e:	82 60       	ori	r24, 0x02	; 2
    2540:	87 bf       	out	0x37, r24	; 55
    2542:	0e 94 47 15 	call	0x2a8e	; 0x2a8e <PORTS_Initalize>
    2546:	0e 94 9b 0a 	call	0x1536	; 0x1536 <init_ADC>
    254a:	0e 94 22 1a 	call	0x3444	; 0x3444 <LCD_Initalize>
    254e:	0e 94 d9 18 	call	0x31b2	; 0x31b2 <LCD_ClearText>
    2552:	0e 94 1e 19 	call	0x323c	; 0x323c <LCD_ClearCG>
    2556:	0e 94 2f 19 	call	0x325e	; 0x325e <LCD_ClearGraphic>
    255a:	c5 9a       	sbi	0x18, 5	; 24
    255c:	1b ba       	out	0x1b, r1	; 27
    255e:	c4 9a       	sbi	0x18, 4	; 24
    2560:	c3 9a       	sbi	0x18, 3	; 24
    2562:	c2 9a       	sbi	0x18, 2	; 24
    2564:	2f ef       	ldi	r18, 0xFF	; 255
    2566:	8f ec       	ldi	r24, 0xCF	; 207
    2568:	92 e0       	ldi	r25, 0x02	; 2
    256a:	21 50       	subi	r18, 0x01	; 1
    256c:	80 40       	sbci	r24, 0x00	; 0
    256e:	90 40       	sbci	r25, 0x00	; 0
    2570:	e1 f7       	brne	.-8      	; 0x256a <main+0x3e>
    2572:	00 c0       	rjmp	.+0      	; 0x2574 <main+0x48>
    2574:	00 00       	nop
    2576:	c4 98       	cbi	0x18, 4	; 24
    2578:	c3 98       	cbi	0x18, 3	; 24
    257a:	c2 98       	cbi	0x18, 2	; 24
    257c:	78 94       	sei
    257e:	f1 2c       	mov	r15, r1
    2580:	cf e0       	ldi	r28, 0x0F	; 15
    2582:	d0 e0       	ldi	r29, 0x00	; 0
    2584:	01 e2       	ldi	r16, 0x21	; 33
    2586:	10 e0       	ldi	r17, 0x00	; 0
    2588:	80 91 6b 08 	lds	r24, 0x086B
    258c:	90 91 6c 08 	lds	r25, 0x086C
    2590:	89 2b       	or	r24, r25
    2592:	31 f4       	brne	.+12     	; 0x25a0 <main+0x74>
    2594:	d0 93 6c 08 	sts	0x086C, r29
    2598:	c0 93 6b 08 	sts	0x086B, r28
    259c:	0e 94 e1 0a 	call	0x15c2	; 0x15c2 <ADC_GETALL>
    25a0:	80 91 bd 08 	lds	r24, 0x08BD
    25a4:	90 91 be 08 	lds	r25, 0x08BE
    25a8:	89 2b       	or	r24, r25
    25aa:	71 f7       	brne	.-36     	; 0x2588 <main+0x5c>
    25ac:	10 93 be 08 	sts	0x08BE, r17
    25b0:	00 93 bd 08 	sts	0x08BD, r16
    25b4:	80 91 5f 08 	lds	r24, 0x085F
    25b8:	81 11       	cpse	r24, r1
    25ba:	10 c0       	rjmp	.+32     	; 0x25dc <main+0xb0>
    25bc:	0e 94 9b 0f 	call	0x1f36	; 0x1f36 <Intro>
    25c0:	0e 94 d8 10 	call	0x21b0	; 0x21b0 <InitTests>
    25c4:	80 93 5f 08 	sts	0x085F, r24
    25c8:	88 23       	and	r24, r24
    25ca:	09 f4       	brne	.+2      	; 0x25ce <main+0xa2>
    25cc:	58 c2       	rjmp	.+1200   	; 0x2a7e <main+0x552>
    25ce:	0e 94 d9 18 	call	0x31b2	; 0x31b2 <LCD_ClearText>
    25d2:	0e 94 1e 19 	call	0x323c	; 0x323c <LCD_ClearCG>
    25d6:	0e 94 2f 19 	call	0x325e	; 0x325e <LCD_ClearGraphic>
    25da:	51 c2       	rjmp	.+1186   	; 0x2a7e <main+0x552>
    25dc:	80 91 98 08 	lds	r24, 0x0898
    25e0:	81 30       	cpi	r24, 0x01	; 1
    25e2:	b1 f4       	brne	.+44     	; 0x2610 <main+0xe4>
    25e4:	10 92 98 08 	sts	0x0898, r1
    25e8:	40 e0       	ldi	r20, 0x00	; 0
    25ea:	67 e0       	ldi	r22, 0x07	; 7
    25ec:	0e 94 9b 0c 	call	0x1936	; 0x1936 <LATCH_CONTROL>
    25f0:	40 e0       	ldi	r20, 0x00	; 0
    25f2:	65 e0       	ldi	r22, 0x05	; 5
    25f4:	82 e0       	ldi	r24, 0x02	; 2
    25f6:	0e 94 9b 0c 	call	0x1936	; 0x1936 <LATCH_CONTROL>
    25fa:	40 e0       	ldi	r20, 0x00	; 0
    25fc:	66 e0       	ldi	r22, 0x06	; 6
    25fe:	82 e0       	ldi	r24, 0x02	; 2
    2600:	0e 94 9b 0c 	call	0x1936	; 0x1936 <LATCH_CONTROL>
    2604:	40 e0       	ldi	r20, 0x00	; 0
    2606:	67 e0       	ldi	r22, 0x07	; 7
    2608:	82 e0       	ldi	r24, 0x02	; 2
    260a:	0e 94 9b 0c 	call	0x1936	; 0x1936 <LATCH_CONTROL>
    260e:	c6 98       	cbi	0x18, 6	; 24
    2610:	80 91 99 08 	lds	r24, 0x0899
    2614:	81 30       	cpi	r24, 0x01	; 1
    2616:	d1 f4       	brne	.+52     	; 0x264c <main+0x120>
    2618:	10 92 99 08 	sts	0x0899, r1
    261c:	40 e0       	ldi	r20, 0x00	; 0
    261e:	65 e0       	ldi	r22, 0x05	; 5
    2620:	0e 94 9b 0c 	call	0x1936	; 0x1936 <LATCH_CONTROL>
    2624:	40 e0       	ldi	r20, 0x00	; 0
    2626:	66 e0       	ldi	r22, 0x06	; 6
    2628:	81 e0       	ldi	r24, 0x01	; 1
    262a:	0e 94 9b 0c 	call	0x1936	; 0x1936 <LATCH_CONTROL>
    262e:	40 e0       	ldi	r20, 0x00	; 0
    2630:	65 e0       	ldi	r22, 0x05	; 5
    2632:	80 e0       	ldi	r24, 0x00	; 0
    2634:	0e 94 9b 0c 	call	0x1936	; 0x1936 <LATCH_CONTROL>
    2638:	40 e0       	ldi	r20, 0x00	; 0
    263a:	66 e0       	ldi	r22, 0x06	; 6
    263c:	80 e0       	ldi	r24, 0x00	; 0
    263e:	0e 94 9b 0c 	call	0x1936	; 0x1936 <LATCH_CONTROL>
    2642:	40 e0       	ldi	r20, 0x00	; 0
    2644:	67 e0       	ldi	r22, 0x07	; 7
    2646:	80 e0       	ldi	r24, 0x00	; 0
    2648:	0e 94 9b 0c 	call	0x1936	; 0x1936 <LATCH_CONTROL>
    264c:	80 91 08 01 	lds	r24, 0x0108
    2650:	81 30       	cpi	r24, 0x01	; 1
    2652:	11 f5       	brne	.+68     	; 0x2698 <main+0x16c>
    2654:	e4 ea       	ldi	r30, 0xA4	; 164
    2656:	f8 e0       	ldi	r31, 0x08	; 8
    2658:	a0 ed       	ldi	r26, 0xD0	; 208
    265a:	b8 e0       	ldi	r27, 0x08	; 8
    265c:	81 91       	ld	r24, Z+
    265e:	81 30       	cpi	r24, 0x01	; 1
    2660:	19 f0       	breq	.+6      	; 0x2668 <main+0x13c>
    2662:	10 92 56 08 	sts	0x0856, r1
    2666:	09 c0       	rjmp	.+18     	; 0x267a <main+0x14e>
    2668:	9d 91       	ld	r25, X+
    266a:	91 11       	cpse	r25, r1
    266c:	fa cf       	rjmp	.-12     	; 0x2662 <main+0x136>
    266e:	28 e0       	ldi	r18, 0x08	; 8
    2670:	e9 3a       	cpi	r30, 0xA9	; 169
    2672:	f2 07       	cpc	r31, r18
    2674:	99 f7       	brne	.-26     	; 0x265c <main+0x130>
    2676:	80 93 56 08 	sts	0x0856, r24
    267a:	80 91 56 08 	lds	r24, 0x0856
    267e:	81 30       	cpi	r24, 0x01	; 1
    2680:	69 f4       	brne	.+26     	; 0x269c <main+0x170>
    2682:	80 93 7f 08 	sts	0x087F, r24
    2686:	80 93 80 08 	sts	0x0880, r24
    268a:	80 93 81 08 	sts	0x0881, r24
    268e:	80 93 82 08 	sts	0x0882, r24
    2692:	80 93 83 08 	sts	0x0883, r24
    2696:	02 c0       	rjmp	.+4      	; 0x269c <main+0x170>
    2698:	10 92 56 08 	sts	0x0856, r1
    269c:	80 91 a4 08 	lds	r24, 0x08A4
    26a0:	81 30       	cpi	r24, 0x01	; 1
    26a2:	41 f4       	brne	.+16     	; 0x26b4 <main+0x188>
    26a4:	0b 9b       	sbis	0x01, 3	; 1
    26a6:	06 c0       	rjmp	.+12     	; 0x26b4 <main+0x188>
    26a8:	40 e0       	ldi	r20, 0x00	; 0
    26aa:	67 e0       	ldi	r22, 0x07	; 7
    26ac:	0e 94 9b 0c 	call	0x1936	; 0x1936 <LATCH_CONTROL>
    26b0:	10 92 a4 08 	sts	0x08A4, r1
    26b4:	80 91 a5 08 	lds	r24, 0x08A5
    26b8:	81 30       	cpi	r24, 0x01	; 1
    26ba:	49 f4       	brne	.+18     	; 0x26ce <main+0x1a2>
    26bc:	0d 9b       	sbis	0x01, 5	; 1
    26be:	07 c0       	rjmp	.+14     	; 0x26ce <main+0x1a2>
    26c0:	40 e0       	ldi	r20, 0x00	; 0
    26c2:	65 e0       	ldi	r22, 0x05	; 5
    26c4:	82 e0       	ldi	r24, 0x02	; 2
    26c6:	0e 94 9b 0c 	call	0x1936	; 0x1936 <LATCH_CONTROL>
    26ca:	10 92 a5 08 	sts	0x08A5, r1
    26ce:	80 91 a6 08 	lds	r24, 0x08A6
    26d2:	81 30       	cpi	r24, 0x01	; 1
    26d4:	49 f4       	brne	.+18     	; 0x26e8 <main+0x1bc>
    26d6:	0e 9b       	sbis	0x01, 6	; 1
    26d8:	07 c0       	rjmp	.+14     	; 0x26e8 <main+0x1bc>
    26da:	40 e0       	ldi	r20, 0x00	; 0
    26dc:	66 e0       	ldi	r22, 0x06	; 6
    26de:	82 e0       	ldi	r24, 0x02	; 2
    26e0:	0e 94 9b 0c 	call	0x1936	; 0x1936 <LATCH_CONTROL>
    26e4:	10 92 a6 08 	sts	0x08A6, r1
    26e8:	80 91 a7 08 	lds	r24, 0x08A7
    26ec:	81 30       	cpi	r24, 0x01	; 1
    26ee:	49 f4       	brne	.+18     	; 0x2702 <main+0x1d6>
    26f0:	0f 9b       	sbis	0x01, 7	; 1
    26f2:	07 c0       	rjmp	.+14     	; 0x2702 <main+0x1d6>
    26f4:	40 e0       	ldi	r20, 0x00	; 0
    26f6:	67 e0       	ldi	r22, 0x07	; 7
    26f8:	82 e0       	ldi	r24, 0x02	; 2
    26fa:	0e 94 9b 0c 	call	0x1936	; 0x1936 <LATCH_CONTROL>
    26fe:	10 92 a7 08 	sts	0x08A7, r1
    2702:	80 91 a8 08 	lds	r24, 0x08A8
    2706:	81 30       	cpi	r24, 0x01	; 1
    2708:	29 f4       	brne	.+10     	; 0x2714 <main+0x1e8>
    270a:	b0 9b       	sbis	0x16, 0	; 22
    270c:	03 c0       	rjmp	.+6      	; 0x2714 <main+0x1e8>
    270e:	c6 98       	cbi	0x18, 6	; 24
    2710:	10 92 a8 08 	sts	0x08A8, r1
    2714:	80 91 57 08 	lds	r24, 0x0857
    2718:	81 30       	cpi	r24, 0x01	; 1
    271a:	39 f4       	brne	.+14     	; 0x272a <main+0x1fe>
    271c:	80 91 a4 08 	lds	r24, 0x08A4
    2720:	81 11       	cpse	r24, r1
    2722:	1e c0       	rjmp	.+60     	; 0x2760 <main+0x234>
    2724:	0b 9b       	sbis	0x01, 3	; 1
    2726:	09 c0       	rjmp	.+18     	; 0x273a <main+0x20e>
    2728:	3e c0       	rjmp	.+124    	; 0x27a6 <main+0x27a>
    272a:	81 11       	cpse	r24, r1
    272c:	3c c0       	rjmp	.+120    	; 0x27a6 <main+0x27a>
    272e:	80 91 7f 08 	lds	r24, 0x087F
    2732:	81 11       	cpse	r24, r1
    2734:	1a c0       	rjmp	.+52     	; 0x276a <main+0x23e>
    2736:	0b 99       	sbic	0x01, 3	; 1
    2738:	36 c0       	rjmp	.+108    	; 0x27a6 <main+0x27a>
    273a:	41 e0       	ldi	r20, 0x01	; 1
    273c:	67 e0       	ldi	r22, 0x07	; 7
    273e:	81 e0       	ldi	r24, 0x01	; 1
    2740:	0e 94 9b 0c 	call	0x1936	; 0x1936 <LATCH_CONTROL>
    2744:	80 91 08 01 	lds	r24, 0x0108
    2748:	81 11       	cpse	r24, r1
    274a:	06 c0       	rjmp	.+12     	; 0x2758 <main+0x22c>
    274c:	81 e0       	ldi	r24, 0x01	; 1
    274e:	80 93 98 08 	sts	0x0898, r24
    2752:	80 93 7f 08 	sts	0x087F, r24
    2756:	30 c0       	rjmp	.+96     	; 0x27b8 <main+0x28c>
    2758:	81 e0       	ldi	r24, 0x01	; 1
    275a:	80 93 a4 08 	sts	0x08A4, r24
    275e:	2c c0       	rjmp	.+88     	; 0x27b8 <main+0x28c>
    2760:	81 30       	cpi	r24, 0x01	; 1
    2762:	09 f5       	brne	.+66     	; 0x27a6 <main+0x27a>
    2764:	0b 9b       	sbis	0x01, 3	; 1
    2766:	05 c0       	rjmp	.+10     	; 0x2772 <main+0x246>
    2768:	1e c0       	rjmp	.+60     	; 0x27a6 <main+0x27a>
    276a:	81 30       	cpi	r24, 0x01	; 1
    276c:	e1 f4       	brne	.+56     	; 0x27a6 <main+0x27a>
    276e:	0b 9b       	sbis	0x01, 3	; 1
    2770:	1a c0       	rjmp	.+52     	; 0x27a6 <main+0x27a>
    2772:	41 e0       	ldi	r20, 0x01	; 1
    2774:	65 e0       	ldi	r22, 0x05	; 5
    2776:	81 e0       	ldi	r24, 0x01	; 1
    2778:	0e 94 9b 0c 	call	0x1936	; 0x1936 <LATCH_CONTROL>
    277c:	40 e0       	ldi	r20, 0x00	; 0
    277e:	67 e0       	ldi	r22, 0x07	; 7
    2780:	81 e0       	ldi	r24, 0x01	; 1
    2782:	0e 94 9b 0c 	call	0x1936	; 0x1936 <LATCH_CONTROL>
    2786:	81 e0       	ldi	r24, 0x01	; 1
    2788:	80 93 99 08 	sts	0x0899, r24
    278c:	10 92 a4 08 	sts	0x08A4, r1
    2790:	10 92 7f 08 	sts	0x087F, r1
    2794:	64 e0       	ldi	r22, 0x04	; 4
    2796:	80 e0       	ldi	r24, 0x00	; 0
    2798:	0e 94 b7 0d 	call	0x1b6e	; 0x1b6e <VALVE_CONTROL>
    279c:	10 92 d0 08 	sts	0x08D0, r1
    27a0:	10 92 ee 08 	sts	0x08EE, r1
    27a4:	09 c0       	rjmp	.+18     	; 0x27b8 <main+0x28c>
    27a6:	80 91 7f 08 	lds	r24, 0x087F
    27aa:	81 30       	cpi	r24, 0x01	; 1
    27ac:	29 f4       	brne	.+10     	; 0x27b8 <main+0x28c>
    27ae:	80 e0       	ldi	r24, 0x00	; 0
    27b0:	0e 94 41 1c 	call	0x3882	; 0x3882 <StartTesting>
    27b4:	80 93 ee 08 	sts	0x08EE, r24
    27b8:	80 91 57 08 	lds	r24, 0x0857
    27bc:	81 30       	cpi	r24, 0x01	; 1
    27be:	39 f4       	brne	.+14     	; 0x27ce <main+0x2a2>
    27c0:	80 91 a5 08 	lds	r24, 0x08A5
    27c4:	81 11       	cpse	r24, r1
    27c6:	1e c0       	rjmp	.+60     	; 0x2804 <main+0x2d8>
    27c8:	0d 9b       	sbis	0x01, 5	; 1
    27ca:	09 c0       	rjmp	.+18     	; 0x27de <main+0x2b2>
    27cc:	3d c0       	rjmp	.+122    	; 0x2848 <main+0x31c>
    27ce:	81 11       	cpse	r24, r1
    27d0:	3b c0       	rjmp	.+118    	; 0x2848 <main+0x31c>
    27d2:	80 91 80 08 	lds	r24, 0x0880
    27d6:	81 11       	cpse	r24, r1
    27d8:	1a c0       	rjmp	.+52     	; 0x280e <main+0x2e2>
    27da:	0d 99       	sbic	0x01, 5	; 1
    27dc:	35 c0       	rjmp	.+106    	; 0x2848 <main+0x31c>
    27de:	41 e0       	ldi	r20, 0x01	; 1
    27e0:	65 e0       	ldi	r22, 0x05	; 5
    27e2:	82 e0       	ldi	r24, 0x02	; 2
    27e4:	0e 94 9b 0c 	call	0x1936	; 0x1936 <LATCH_CONTROL>
    27e8:	80 91 08 01 	lds	r24, 0x0108
    27ec:	81 11       	cpse	r24, r1
    27ee:	06 c0       	rjmp	.+12     	; 0x27fc <main+0x2d0>
    27f0:	81 e0       	ldi	r24, 0x01	; 1
    27f2:	80 93 98 08 	sts	0x0898, r24
    27f6:	80 93 80 08 	sts	0x0880, r24
    27fa:	2e c0       	rjmp	.+92     	; 0x2858 <main+0x32c>
    27fc:	81 e0       	ldi	r24, 0x01	; 1
    27fe:	80 93 a5 08 	sts	0x08A5, r24
    2802:	2a c0       	rjmp	.+84     	; 0x2858 <main+0x32c>
    2804:	81 30       	cpi	r24, 0x01	; 1
    2806:	01 f5       	brne	.+64     	; 0x2848 <main+0x31c>
    2808:	0d 9b       	sbis	0x01, 5	; 1
    280a:	05 c0       	rjmp	.+10     	; 0x2816 <main+0x2ea>
    280c:	1d c0       	rjmp	.+58     	; 0x2848 <main+0x31c>
    280e:	81 30       	cpi	r24, 0x01	; 1
    2810:	d9 f4       	brne	.+54     	; 0x2848 <main+0x31c>
    2812:	0d 9b       	sbis	0x01, 5	; 1
    2814:	19 c0       	rjmp	.+50     	; 0x2848 <main+0x31c>
    2816:	41 e0       	ldi	r20, 0x01	; 1
    2818:	66 e0       	ldi	r22, 0x06	; 6
    281a:	81 e0       	ldi	r24, 0x01	; 1
    281c:	0e 94 9b 0c 	call	0x1936	; 0x1936 <LATCH_CONTROL>
    2820:	40 e0       	ldi	r20, 0x00	; 0
    2822:	65 e0       	ldi	r22, 0x05	; 5
    2824:	82 e0       	ldi	r24, 0x02	; 2
    2826:	0e 94 9b 0c 	call	0x1936	; 0x1936 <LATCH_CONTROL>
    282a:	81 e0       	ldi	r24, 0x01	; 1
    282c:	80 93 99 08 	sts	0x0899, r24
    2830:	10 92 a5 08 	sts	0x08A5, r1
    2834:	10 92 80 08 	sts	0x0880, r1
    2838:	64 e0       	ldi	r22, 0x04	; 4
    283a:	0e 94 b7 0d 	call	0x1b6e	; 0x1b6e <VALVE_CONTROL>
    283e:	10 92 d1 08 	sts	0x08D1, r1
    2842:	10 92 ef 08 	sts	0x08EF, r1
    2846:	08 c0       	rjmp	.+16     	; 0x2858 <main+0x32c>
    2848:	80 91 80 08 	lds	r24, 0x0880
    284c:	81 30       	cpi	r24, 0x01	; 1
    284e:	21 f4       	brne	.+8      	; 0x2858 <main+0x32c>
    2850:	0e 94 41 1c 	call	0x3882	; 0x3882 <StartTesting>
    2854:	80 93 ef 08 	sts	0x08EF, r24
    2858:	80 91 57 08 	lds	r24, 0x0857
    285c:	81 30       	cpi	r24, 0x01	; 1
    285e:	39 f4       	brne	.+14     	; 0x286e <main+0x342>
    2860:	80 91 a6 08 	lds	r24, 0x08A6
    2864:	81 11       	cpse	r24, r1
    2866:	1e c0       	rjmp	.+60     	; 0x28a4 <main+0x378>
    2868:	0e 9b       	sbis	0x01, 6	; 1
    286a:	09 c0       	rjmp	.+18     	; 0x287e <main+0x352>
    286c:	3e c0       	rjmp	.+124    	; 0x28ea <main+0x3be>
    286e:	81 11       	cpse	r24, r1
    2870:	3c c0       	rjmp	.+120    	; 0x28ea <main+0x3be>
    2872:	80 91 81 08 	lds	r24, 0x0881
    2876:	81 11       	cpse	r24, r1
    2878:	1a c0       	rjmp	.+52     	; 0x28ae <main+0x382>
    287a:	0e 99       	sbic	0x01, 6	; 1
    287c:	36 c0       	rjmp	.+108    	; 0x28ea <main+0x3be>
    287e:	41 e0       	ldi	r20, 0x01	; 1
    2880:	66 e0       	ldi	r22, 0x06	; 6
    2882:	82 e0       	ldi	r24, 0x02	; 2
    2884:	0e 94 9b 0c 	call	0x1936	; 0x1936 <LATCH_CONTROL>
    2888:	80 91 08 01 	lds	r24, 0x0108
    288c:	81 11       	cpse	r24, r1
    288e:	06 c0       	rjmp	.+12     	; 0x289c <main+0x370>
    2890:	81 e0       	ldi	r24, 0x01	; 1
    2892:	80 93 98 08 	sts	0x0898, r24
    2896:	80 93 81 08 	sts	0x0881, r24
    289a:	30 c0       	rjmp	.+96     	; 0x28fc <main+0x3d0>
    289c:	81 e0       	ldi	r24, 0x01	; 1
    289e:	80 93 a6 08 	sts	0x08A6, r24
    28a2:	2c c0       	rjmp	.+88     	; 0x28fc <main+0x3d0>
    28a4:	81 30       	cpi	r24, 0x01	; 1
    28a6:	09 f5       	brne	.+66     	; 0x28ea <main+0x3be>
    28a8:	0e 9b       	sbis	0x01, 6	; 1
    28aa:	05 c0       	rjmp	.+10     	; 0x28b6 <main+0x38a>
    28ac:	1e c0       	rjmp	.+60     	; 0x28ea <main+0x3be>
    28ae:	81 30       	cpi	r24, 0x01	; 1
    28b0:	e1 f4       	brne	.+56     	; 0x28ea <main+0x3be>
    28b2:	0e 9b       	sbis	0x01, 6	; 1
    28b4:	1a c0       	rjmp	.+52     	; 0x28ea <main+0x3be>
    28b6:	41 e0       	ldi	r20, 0x01	; 1
    28b8:	65 e0       	ldi	r22, 0x05	; 5
    28ba:	80 e0       	ldi	r24, 0x00	; 0
    28bc:	0e 94 9b 0c 	call	0x1936	; 0x1936 <LATCH_CONTROL>
    28c0:	40 e0       	ldi	r20, 0x00	; 0
    28c2:	66 e0       	ldi	r22, 0x06	; 6
    28c4:	82 e0       	ldi	r24, 0x02	; 2
    28c6:	0e 94 9b 0c 	call	0x1936	; 0x1936 <LATCH_CONTROL>
    28ca:	81 e0       	ldi	r24, 0x01	; 1
    28cc:	80 93 99 08 	sts	0x0899, r24
    28d0:	10 92 a6 08 	sts	0x08A6, r1
    28d4:	10 92 81 08 	sts	0x0881, r1
    28d8:	64 e0       	ldi	r22, 0x04	; 4
    28da:	82 e0       	ldi	r24, 0x02	; 2
    28dc:	0e 94 b7 0d 	call	0x1b6e	; 0x1b6e <VALVE_CONTROL>
    28e0:	10 92 d2 08 	sts	0x08D2, r1
    28e4:	10 92 f0 08 	sts	0x08F0, r1
    28e8:	09 c0       	rjmp	.+18     	; 0x28fc <main+0x3d0>
    28ea:	80 91 81 08 	lds	r24, 0x0881
    28ee:	81 30       	cpi	r24, 0x01	; 1
    28f0:	29 f4       	brne	.+10     	; 0x28fc <main+0x3d0>
    28f2:	82 e0       	ldi	r24, 0x02	; 2
    28f4:	0e 94 41 1c 	call	0x3882	; 0x3882 <StartTesting>
    28f8:	80 93 f0 08 	sts	0x08F0, r24
    28fc:	80 91 57 08 	lds	r24, 0x0857
    2900:	81 30       	cpi	r24, 0x01	; 1
    2902:	39 f4       	brne	.+14     	; 0x2912 <main+0x3e6>
    2904:	80 91 a7 08 	lds	r24, 0x08A7
    2908:	81 11       	cpse	r24, r1
    290a:	1e c0       	rjmp	.+60     	; 0x2948 <main+0x41c>
    290c:	0f 9b       	sbis	0x01, 7	; 1
    290e:	09 c0       	rjmp	.+18     	; 0x2922 <main+0x3f6>
    2910:	3e c0       	rjmp	.+124    	; 0x298e <main+0x462>
    2912:	81 11       	cpse	r24, r1
    2914:	3c c0       	rjmp	.+120    	; 0x298e <main+0x462>
    2916:	80 91 82 08 	lds	r24, 0x0882
    291a:	81 11       	cpse	r24, r1
    291c:	1a c0       	rjmp	.+52     	; 0x2952 <main+0x426>
    291e:	0f 99       	sbic	0x01, 7	; 1
    2920:	36 c0       	rjmp	.+108    	; 0x298e <main+0x462>
    2922:	41 e0       	ldi	r20, 0x01	; 1
    2924:	67 e0       	ldi	r22, 0x07	; 7
    2926:	82 e0       	ldi	r24, 0x02	; 2
    2928:	0e 94 9b 0c 	call	0x1936	; 0x1936 <LATCH_CONTROL>
    292c:	80 91 08 01 	lds	r24, 0x0108
    2930:	81 11       	cpse	r24, r1
    2932:	06 c0       	rjmp	.+12     	; 0x2940 <main+0x414>
    2934:	81 e0       	ldi	r24, 0x01	; 1
    2936:	80 93 98 08 	sts	0x0898, r24
    293a:	80 93 82 08 	sts	0x0882, r24
    293e:	30 c0       	rjmp	.+96     	; 0x29a0 <main+0x474>
    2940:	81 e0       	ldi	r24, 0x01	; 1
    2942:	80 93 a7 08 	sts	0x08A7, r24
    2946:	2c c0       	rjmp	.+88     	; 0x29a0 <main+0x474>
    2948:	81 30       	cpi	r24, 0x01	; 1
    294a:	09 f5       	brne	.+66     	; 0x298e <main+0x462>
    294c:	0f 9b       	sbis	0x01, 7	; 1
    294e:	05 c0       	rjmp	.+10     	; 0x295a <main+0x42e>
    2950:	1e c0       	rjmp	.+60     	; 0x298e <main+0x462>
    2952:	81 30       	cpi	r24, 0x01	; 1
    2954:	e1 f4       	brne	.+56     	; 0x298e <main+0x462>
    2956:	0f 9b       	sbis	0x01, 7	; 1
    2958:	1a c0       	rjmp	.+52     	; 0x298e <main+0x462>
    295a:	41 e0       	ldi	r20, 0x01	; 1
    295c:	66 e0       	ldi	r22, 0x06	; 6
    295e:	80 e0       	ldi	r24, 0x00	; 0
    2960:	0e 94 9b 0c 	call	0x1936	; 0x1936 <LATCH_CONTROL>
    2964:	40 e0       	ldi	r20, 0x00	; 0
    2966:	67 e0       	ldi	r22, 0x07	; 7
    2968:	82 e0       	ldi	r24, 0x02	; 2
    296a:	0e 94 9b 0c 	call	0x1936	; 0x1936 <LATCH_CONTROL>
    296e:	81 e0       	ldi	r24, 0x01	; 1
    2970:	80 93 99 08 	sts	0x0899, r24
    2974:	10 92 a7 08 	sts	0x08A7, r1
    2978:	10 92 82 08 	sts	0x0882, r1
    297c:	64 e0       	ldi	r22, 0x04	; 4
    297e:	83 e0       	ldi	r24, 0x03	; 3
    2980:	0e 94 b7 0d 	call	0x1b6e	; 0x1b6e <VALVE_CONTROL>
    2984:	10 92 d3 08 	sts	0x08D3, r1
    2988:	10 92 f1 08 	sts	0x08F1, r1
    298c:	09 c0       	rjmp	.+18     	; 0x29a0 <main+0x474>
    298e:	80 91 82 08 	lds	r24, 0x0882
    2992:	81 30       	cpi	r24, 0x01	; 1
    2994:	29 f4       	brne	.+10     	; 0x29a0 <main+0x474>
    2996:	83 e0       	ldi	r24, 0x03	; 3
    2998:	0e 94 41 1c 	call	0x3882	; 0x3882 <StartTesting>
    299c:	80 93 f1 08 	sts	0x08F1, r24
    29a0:	80 91 57 08 	lds	r24, 0x0857
    29a4:	81 30       	cpi	r24, 0x01	; 1
    29a6:	39 f4       	brne	.+14     	; 0x29b6 <main+0x48a>
    29a8:	80 91 a8 08 	lds	r24, 0x08A8
    29ac:	81 11       	cpse	r24, r1
    29ae:	1c c0       	rjmp	.+56     	; 0x29e8 <main+0x4bc>
    29b0:	b0 9b       	sbis	0x16, 0	; 22
    29b2:	09 c0       	rjmp	.+18     	; 0x29c6 <main+0x49a>
    29b4:	38 c0       	rjmp	.+112    	; 0x2a26 <main+0x4fa>
    29b6:	81 11       	cpse	r24, r1
    29b8:	36 c0       	rjmp	.+108    	; 0x2a26 <main+0x4fa>
    29ba:	80 91 83 08 	lds	r24, 0x0883
    29be:	81 11       	cpse	r24, r1
    29c0:	18 c0       	rjmp	.+48     	; 0x29f2 <main+0x4c6>
    29c2:	b0 99       	sbic	0x16, 0	; 22
    29c4:	30 c0       	rjmp	.+96     	; 0x2a26 <main+0x4fa>
    29c6:	c6 9a       	sbi	0x18, 6	; 24
    29c8:	80 91 08 01 	lds	r24, 0x0108
    29cc:	81 11       	cpse	r24, r1
    29ce:	06 c0       	rjmp	.+12     	; 0x29dc <main+0x4b0>
    29d0:	81 e0       	ldi	r24, 0x01	; 1
    29d2:	80 93 98 08 	sts	0x0898, r24
    29d6:	80 93 83 08 	sts	0x0883, r24
    29da:	03 c0       	rjmp	.+6      	; 0x29e2 <main+0x4b6>
    29dc:	81 e0       	ldi	r24, 0x01	; 1
    29de:	80 93 a8 08 	sts	0x08A8, r24
    29e2:	ee ee       	ldi	r30, 0xEE	; 238
    29e4:	f8 e0       	ldi	r31, 0x08	; 8
    29e6:	2e c0       	rjmp	.+92     	; 0x2a44 <main+0x518>
    29e8:	81 30       	cpi	r24, 0x01	; 1
    29ea:	e9 f4       	brne	.+58     	; 0x2a26 <main+0x4fa>
    29ec:	b0 9b       	sbis	0x16, 0	; 22
    29ee:	05 c0       	rjmp	.+10     	; 0x29fa <main+0x4ce>
    29f0:	1a c0       	rjmp	.+52     	; 0x2a26 <main+0x4fa>
    29f2:	81 30       	cpi	r24, 0x01	; 1
    29f4:	c1 f4       	brne	.+48     	; 0x2a26 <main+0x4fa>
    29f6:	b0 9b       	sbis	0x16, 0	; 22
    29f8:	16 c0       	rjmp	.+44     	; 0x2a26 <main+0x4fa>
    29fa:	41 e0       	ldi	r20, 0x01	; 1
    29fc:	67 e0       	ldi	r22, 0x07	; 7
    29fe:	80 e0       	ldi	r24, 0x00	; 0
    2a00:	0e 94 9b 0c 	call	0x1936	; 0x1936 <LATCH_CONTROL>
    2a04:	c6 98       	cbi	0x18, 6	; 24
    2a06:	81 e0       	ldi	r24, 0x01	; 1
    2a08:	80 93 99 08 	sts	0x0899, r24
    2a0c:	10 92 a8 08 	sts	0x08A8, r1
    2a10:	10 92 83 08 	sts	0x0883, r1
    2a14:	64 e0       	ldi	r22, 0x04	; 4
    2a16:	84 e0       	ldi	r24, 0x04	; 4
    2a18:	0e 94 b7 0d 	call	0x1b6e	; 0x1b6e <VALVE_CONTROL>
    2a1c:	10 92 d4 08 	sts	0x08D4, r1
    2a20:	10 92 f2 08 	sts	0x08F2, r1
    2a24:	de cf       	rjmp	.-68     	; 0x29e2 <main+0x4b6>
    2a26:	80 91 83 08 	lds	r24, 0x0883
    2a2a:	81 30       	cpi	r24, 0x01	; 1
    2a2c:	d1 f6       	brne	.-76     	; 0x29e2 <main+0x4b6>
    2a2e:	84 e0       	ldi	r24, 0x04	; 4
    2a30:	0e 94 41 1c 	call	0x3882	; 0x3882 <StartTesting>
    2a34:	80 93 f2 08 	sts	0x08F2, r24
    2a38:	d4 cf       	rjmp	.-88     	; 0x29e2 <main+0x4b6>
    2a3a:	c7 98       	cbi	0x18, 7	; 24
    2a3c:	88 e0       	ldi	r24, 0x08	; 8
    2a3e:	e3 3f       	cpi	r30, 0xF3	; 243
    2a40:	f8 07       	cpc	r31, r24
    2a42:	21 f0       	breq	.+8      	; 0x2a4c <main+0x520>
    2a44:	81 91       	ld	r24, Z+
    2a46:	82 30       	cpi	r24, 0x02	; 2
    2a48:	c1 f7       	brne	.-16     	; 0x2a3a <main+0x50e>
    2a4a:	c7 9a       	sbi	0x18, 7	; 24
    2a4c:	60 91 d0 08 	lds	r22, 0x08D0
    2a50:	80 e0       	ldi	r24, 0x00	; 0
    2a52:	0e 94 2a 18 	call	0x3054	; 0x3054 <ShowTestInfo>
    2a56:	60 91 d1 08 	lds	r22, 0x08D1
    2a5a:	81 e0       	ldi	r24, 0x01	; 1
    2a5c:	0e 94 2a 18 	call	0x3054	; 0x3054 <ShowTestInfo>
    2a60:	60 91 d2 08 	lds	r22, 0x08D2
    2a64:	82 e0       	ldi	r24, 0x02	; 2
    2a66:	0e 94 2a 18 	call	0x3054	; 0x3054 <ShowTestInfo>
    2a6a:	60 91 d3 08 	lds	r22, 0x08D3
    2a6e:	83 e0       	ldi	r24, 0x03	; 3
    2a70:	0e 94 2a 18 	call	0x3054	; 0x3054 <ShowTestInfo>
    2a74:	60 91 d4 08 	lds	r22, 0x08D4
    2a78:	84 e0       	ldi	r24, 0x04	; 4
    2a7a:	0e 94 2a 18 	call	0x3054	; 0x3054 <ShowTestInfo>
    2a7e:	81 e0       	ldi	r24, 0x01	; 1
    2a80:	f8 26       	eor	r15, r24
    2a82:	4f 2d       	mov	r20, r15
    2a84:	60 e0       	ldi	r22, 0x00	; 0
    2a86:	8f ee       	ldi	r24, 0xEF	; 239
    2a88:	0e 94 a0 19 	call	0x3340	; 0x3340 <LCD_SetPixel>
    2a8c:	7d cd       	rjmp	.-1286   	; 0x2588 <main+0x5c>

00002a8e <PORTS_Initalize>:
    2a8e:	13 98       	cbi	0x02, 3	; 2
    2a90:	15 98       	cbi	0x02, 5	; 2
    2a92:	16 98       	cbi	0x02, 6	; 2
    2a94:	17 98       	cbi	0x02, 7	; 2
    2a96:	b8 98       	cbi	0x17, 0	; 23
    2a98:	1b 9a       	sbi	0x03, 3	; 3
    2a9a:	1d 9a       	sbi	0x03, 5	; 3
    2a9c:	1e 9a       	sbi	0x03, 6	; 3
    2a9e:	1f 9a       	sbi	0x03, 7	; 3
    2aa0:	c0 9a       	sbi	0x18, 0	; 24
    2aa2:	e1 e6       	ldi	r30, 0x61	; 97
    2aa4:	f0 e0       	ldi	r31, 0x00	; 0
    2aa6:	80 81       	ld	r24, Z
    2aa8:	8e 7f       	andi	r24, 0xFE	; 254
    2aaa:	80 83       	st	Z, r24
    2aac:	80 81       	ld	r24, Z
    2aae:	8d 7f       	andi	r24, 0xFD	; 253
    2ab0:	80 83       	st	Z, r24
    2ab2:	80 81       	ld	r24, Z
    2ab4:	8b 7f       	andi	r24, 0xFB	; 251
    2ab6:	80 83       	st	Z, r24
    2ab8:	80 81       	ld	r24, Z
    2aba:	87 7f       	andi	r24, 0xF7	; 247
    2abc:	80 83       	st	Z, r24
    2abe:	80 81       	ld	r24, Z
    2ac0:	8f 7e       	andi	r24, 0xEF	; 239
    2ac2:	80 83       	st	Z, r24
    2ac4:	80 81       	ld	r24, Z
    2ac6:	8f 7d       	andi	r24, 0xDF	; 223
    2ac8:	80 83       	st	Z, r24
    2aca:	8f ef       	ldi	r24, 0xFF	; 255
    2acc:	8a bb       	out	0x1a, r24	; 26
    2ace:	bc 9a       	sbi	0x17, 4	; 23
    2ad0:	bb 9a       	sbi	0x17, 3	; 23
    2ad2:	ba 9a       	sbi	0x17, 2	; 23
    2ad4:	bd 9a       	sbi	0x17, 5	; 23
    2ad6:	bf 9a       	sbi	0x17, 7	; 23
    2ad8:	be 9a       	sbi	0x17, 6	; 23
    2ada:	08 95       	ret

00002adc <ShowDebug>:
    2adc:	8f 92       	push	r8
    2ade:	9f 92       	push	r9
    2ae0:	bf 92       	push	r11
    2ae2:	df 92       	push	r13
    2ae4:	ef 92       	push	r14
    2ae6:	ff 92       	push	r15
    2ae8:	1f 93       	push	r17
    2aea:	cf 93       	push	r28
    2aec:	df 93       	push	r29
    2aee:	e8 2e       	mov	r14, r24
    2af0:	16 2f       	mov	r17, r22
    2af2:	d8 2e       	mov	r13, r24
    2af4:	dd 0c       	add	r13, r13
    2af6:	dd 0c       	add	r13, r13
    2af8:	dd 0c       	add	r13, r13
    2afa:	60 e0       	ldi	r22, 0x00	; 0
    2afc:	8d 2d       	mov	r24, r13
    2afe:	0e 94 ca 18 	call	0x3194	; 0x3194 <LCD_TextGoTo>
    2b02:	80 e8       	ldi	r24, 0x80	; 128
    2b04:	93 e0       	ldi	r25, 0x03	; 3
    2b06:	0e 94 43 19 	call	0x3286	; 0x3286 <LCD_WRiteString>
    2b0a:	60 e0       	ldi	r22, 0x00	; 0
    2b0c:	8d 2d       	mov	r24, r13
    2b0e:	0e 94 ca 18 	call	0x3194	; 0x3194 <LCD_TextGoTo>
    2b12:	89 e8       	ldi	r24, 0x89	; 137
    2b14:	93 e0       	ldi	r25, 0x03	; 3
    2b16:	0e 94 43 19 	call	0x3286	; 0x3286 <LCD_WRiteString>
    2b1a:	f1 2c       	mov	r15, r1
    2b1c:	c7 01       	movw	r24, r14
    2b1e:	01 96       	adiw	r24, 0x01	; 1
    2b20:	0e 94 4f 19 	call	0x329e	; 0x329e <LCD_WriteINT>
    2b24:	61 e0       	ldi	r22, 0x01	; 1
    2b26:	8d 2d       	mov	r24, r13
    2b28:	0e 94 ca 18 	call	0x3194	; 0x3194 <LCD_TextGoTo>
    2b2c:	80 e8       	ldi	r24, 0x80	; 128
    2b2e:	93 e0       	ldi	r25, 0x03	; 3
    2b30:	0e 94 43 19 	call	0x3286	; 0x3286 <LCD_WRiteString>
    2b34:	61 e0       	ldi	r22, 0x01	; 1
    2b36:	8d 2d       	mov	r24, r13
    2b38:	0e 94 ca 18 	call	0x3194	; 0x3194 <LCD_TextGoTo>
    2b3c:	e7 01       	movw	r28, r14
    2b3e:	cc 0f       	add	r28, r28
    2b40:	dd 1f       	adc	r29, r29
    2b42:	fe 01       	movw	r30, r28
    2b44:	e5 55       	subi	r30, 0x55	; 85
    2b46:	f7 4f       	sbci	r31, 0xF7	; 247
    2b48:	80 81       	ld	r24, Z
    2b4a:	91 81       	ldd	r25, Z+1	; 0x01
    2b4c:	0e 94 4f 19 	call	0x329e	; 0x329e <LCD_WriteINT>
    2b50:	80 e9       	ldi	r24, 0x90	; 144
    2b52:	93 e0       	ldi	r25, 0x03	; 3
    2b54:	0e 94 43 19 	call	0x3286	; 0x3286 <LCD_WRiteString>
    2b58:	fe 01       	movw	r30, r28
    2b5a:	ec 51       	subi	r30, 0x1C	; 28
    2b5c:	f7 4f       	sbci	r31, 0xF7	; 247
    2b5e:	80 81       	ld	r24, Z
    2b60:	91 81       	ldd	r25, Z+1	; 0x01
    2b62:	0e 94 4f 19 	call	0x329e	; 0x329e <LCD_WriteINT>
    2b66:	62 e0       	ldi	r22, 0x02	; 2
    2b68:	8d 2d       	mov	r24, r13
    2b6a:	0e 94 ca 18 	call	0x3194	; 0x3194 <LCD_TextGoTo>
    2b6e:	83 e8       	ldi	r24, 0x83	; 131
    2b70:	93 e0       	ldi	r25, 0x03	; 3
    2b72:	0e 94 43 19 	call	0x3286	; 0x3286 <LCD_WRiteString>
    2b76:	62 e0       	ldi	r22, 0x02	; 2
    2b78:	8d 2d       	mov	r24, r13
    2b7a:	0e 94 ca 18 	call	0x3194	; 0x3194 <LCD_TextGoTo>
    2b7e:	fe 01       	movw	r30, r28
    2b80:	ed 50       	subi	r30, 0x0D	; 13
    2b82:	f7 4f       	sbci	r31, 0xF7	; 247
    2b84:	80 81       	ld	r24, Z
    2b86:	91 81       	ldd	r25, Z+1	; 0x01
    2b88:	0e 94 4f 19 	call	0x329e	; 0x329e <LCD_WriteINT>
    2b8c:	c7 01       	movw	r24, r14
    2b8e:	82 51       	subi	r24, 0x12	; 18
    2b90:	97 4f       	sbci	r25, 0xF7	; 247
    2b92:	4c 01       	movw	r8, r24
    2b94:	fc 01       	movw	r30, r24
    2b96:	80 81       	ld	r24, Z
    2b98:	81 50       	subi	r24, 0x01	; 1
    2b9a:	63 e0       	ldi	r22, 0x03	; 3
    2b9c:	82 30       	cpi	r24, 0x02	; 2
    2b9e:	08 f0       	brcs	.+2      	; 0x2ba2 <ShowDebug+0xc6>
    2ba0:	45 c0       	rjmp	.+138    	; 0x2c2c <ShowDebug+0x150>
    2ba2:	8d 2d       	mov	r24, r13
    2ba4:	0e 94 ca 18 	call	0x3194	; 0x3194 <LCD_TextGoTo>
    2ba8:	82 e9       	ldi	r24, 0x92	; 146
    2baa:	93 e0       	ldi	r25, 0x03	; 3
    2bac:	0e 94 43 19 	call	0x3286	; 0x3286 <LCD_WRiteString>
    2bb0:	63 e0       	ldi	r22, 0x03	; 3
    2bb2:	84 e0       	ldi	r24, 0x04	; 4
    2bb4:	b8 2e       	mov	r11, r24
    2bb6:	bd 0c       	add	r11, r13
    2bb8:	8b 2d       	mov	r24, r11
    2bba:	0e 94 ca 18 	call	0x3194	; 0x3194 <LCD_TextGoTo>
    2bbe:	84 e8       	ldi	r24, 0x84	; 132
    2bc0:	93 e0       	ldi	r25, 0x03	; 3
    2bc2:	0e 94 43 19 	call	0x3286	; 0x3286 <LCD_WRiteString>
    2bc6:	63 e0       	ldi	r22, 0x03	; 3
    2bc8:	8b 2d       	mov	r24, r11
    2bca:	0e 94 ca 18 	call	0x3194	; 0x3194 <LCD_TextGoTo>
    2bce:	fe 01       	movw	r30, r28
    2bd0:	ea 53       	subi	r30, 0x3A	; 58
    2bd2:	f7 4f       	sbci	r31, 0xF7	; 247
    2bd4:	80 81       	ld	r24, Z
    2bd6:	91 81       	ldd	r25, Z+1	; 0x01
    2bd8:	0e 94 4f 19 	call	0x329e	; 0x329e <LCD_WriteINT>
    2bdc:	65 e0       	ldi	r22, 0x05	; 5
    2bde:	8d 2d       	mov	r24, r13
    2be0:	0e 94 ca 18 	call	0x3194	; 0x3194 <LCD_TextGoTo>
    2be4:	80 e8       	ldi	r24, 0x80	; 128
    2be6:	93 e0       	ldi	r25, 0x03	; 3
    2be8:	0e 94 43 19 	call	0x3286	; 0x3286 <LCD_WRiteString>
    2bec:	65 e0       	ldi	r22, 0x05	; 5
    2bee:	8d 2d       	mov	r24, r13
    2bf0:	0e 94 ca 18 	call	0x3194	; 0x3194 <LCD_TextGoTo>
    2bf4:	f7 01       	movw	r30, r14
    2bf6:	e1 52       	subi	r30, 0x21	; 33
    2bf8:	f7 4f       	sbci	r31, 0xF7	; 247
    2bfa:	80 81       	ld	r24, Z
    2bfc:	81 30       	cpi	r24, 0x01	; 1
    2bfe:	19 f4       	brne	.+6      	; 0x2c06 <ShowDebug+0x12a>
    2c00:	87 e9       	ldi	r24, 0x97	; 151
    2c02:	93 e0       	ldi	r25, 0x03	; 3
    2c04:	20 c0       	rjmp	.+64     	; 0x2c46 <ShowDebug+0x16a>
    2c06:	82 30       	cpi	r24, 0x02	; 2
    2c08:	19 f4       	brne	.+6      	; 0x2c10 <ShowDebug+0x134>
    2c0a:	80 ea       	ldi	r24, 0xA0	; 160
    2c0c:	93 e0       	ldi	r25, 0x03	; 3
    2c0e:	1b c0       	rjmp	.+54     	; 0x2c46 <ShowDebug+0x16a>
    2c10:	8a 30       	cpi	r24, 0x0A	; 10
    2c12:	19 f4       	brne	.+6      	; 0x2c1a <ShowDebug+0x13e>
    2c14:	89 ea       	ldi	r24, 0xA9	; 169
    2c16:	93 e0       	ldi	r25, 0x03	; 3
    2c18:	16 c0       	rjmp	.+44     	; 0x2c46 <ShowDebug+0x16a>
    2c1a:	8d 30       	cpi	r24, 0x0D	; 13
    2c1c:	19 f4       	brne	.+6      	; 0x2c24 <ShowDebug+0x148>
    2c1e:	82 eb       	ldi	r24, 0xB2	; 178
    2c20:	93 e0       	ldi	r25, 0x03	; 3
    2c22:	11 c0       	rjmp	.+34     	; 0x2c46 <ShowDebug+0x16a>
    2c24:	90 e0       	ldi	r25, 0x00	; 0
    2c26:	0e 94 4f 19 	call	0x329e	; 0x329e <LCD_WriteINT>
    2c2a:	0f c0       	rjmp	.+30     	; 0x2c4a <ShowDebug+0x16e>
    2c2c:	8d 2d       	mov	r24, r13
    2c2e:	0e 94 ca 18 	call	0x3194	; 0x3194 <LCD_TextGoTo>
    2c32:	80 e8       	ldi	r24, 0x80	; 128
    2c34:	93 e0       	ldi	r25, 0x03	; 3
    2c36:	0e 94 43 19 	call	0x3286	; 0x3286 <LCD_WRiteString>
    2c3a:	65 e0       	ldi	r22, 0x05	; 5
    2c3c:	8d 2d       	mov	r24, r13
    2c3e:	0e 94 ca 18 	call	0x3194	; 0x3194 <LCD_TextGoTo>
    2c42:	80 e8       	ldi	r24, 0x80	; 128
    2c44:	93 e0       	ldi	r25, 0x03	; 3
    2c46:	0e 94 43 19 	call	0x3286	; 0x3286 <LCD_WRiteString>
    2c4a:	64 e0       	ldi	r22, 0x04	; 4
    2c4c:	8d 2d       	mov	r24, r13
    2c4e:	0e 94 ca 18 	call	0x3194	; 0x3194 <LCD_TextGoTo>
    2c52:	11 23       	and	r17, r17
    2c54:	39 f0       	breq	.+14     	; 0x2c64 <ShowDebug+0x188>
    2c56:	f4 01       	movw	r30, r8
    2c58:	80 81       	ld	r24, Z
    2c5a:	81 11       	cpse	r24, r1
    2c5c:	06 c0       	rjmp	.+12     	; 0x2c6a <ShowDebug+0x18e>
    2c5e:	8b eb       	ldi	r24, 0xBB	; 187
    2c60:	93 e0       	ldi	r25, 0x03	; 3
    2c62:	16 c0       	rjmp	.+44     	; 0x2c90 <ShowDebug+0x1b4>
    2c64:	80 e8       	ldi	r24, 0x80	; 128
    2c66:	93 e0       	ldi	r25, 0x03	; 3
    2c68:	13 c0       	rjmp	.+38     	; 0x2c90 <ShowDebug+0x1b4>
    2c6a:	14 30       	cpi	r17, 0x04	; 4
    2c6c:	19 f4       	brne	.+6      	; 0x2c74 <ShowDebug+0x198>
    2c6e:	84 ec       	ldi	r24, 0xC4	; 196
    2c70:	93 e0       	ldi	r25, 0x03	; 3
    2c72:	0e c0       	rjmp	.+28     	; 0x2c90 <ShowDebug+0x1b4>
    2c74:	11 30       	cpi	r17, 0x01	; 1
    2c76:	19 f4       	brne	.+6      	; 0x2c7e <ShowDebug+0x1a2>
    2c78:	8d ec       	ldi	r24, 0xCD	; 205
    2c7a:	93 e0       	ldi	r25, 0x03	; 3
    2c7c:	09 c0       	rjmp	.+18     	; 0x2c90 <ShowDebug+0x1b4>
    2c7e:	12 30       	cpi	r17, 0x02	; 2
    2c80:	19 f4       	brne	.+6      	; 0x2c88 <ShowDebug+0x1ac>
    2c82:	86 ed       	ldi	r24, 0xD6	; 214
    2c84:	93 e0       	ldi	r25, 0x03	; 3
    2c86:	04 c0       	rjmp	.+8      	; 0x2c90 <ShowDebug+0x1b4>
    2c88:	13 30       	cpi	r17, 0x03	; 3
    2c8a:	21 f4       	brne	.+8      	; 0x2c94 <ShowDebug+0x1b8>
    2c8c:	8f ed       	ldi	r24, 0xDF	; 223
    2c8e:	93 e0       	ldi	r25, 0x03	; 3
    2c90:	0e 94 43 19 	call	0x3286	; 0x3286 <LCD_WRiteString>
    2c94:	67 e0       	ldi	r22, 0x07	; 7
    2c96:	8d 2d       	mov	r24, r13
    2c98:	0e 94 ca 18 	call	0x3194	; 0x3194 <LCD_TextGoTo>
    2c9c:	f4 01       	movw	r30, r8
    2c9e:	80 81       	ld	r24, Z
    2ca0:	81 11       	cpse	r24, r1
    2ca2:	03 c0       	rjmp	.+6      	; 0x2caa <ShowDebug+0x1ce>
    2ca4:	88 ee       	ldi	r24, 0xE8	; 232
    2ca6:	93 e0       	ldi	r25, 0x03	; 3
    2ca8:	0f c0       	rjmp	.+30     	; 0x2cc8 <ShowDebug+0x1ec>
    2caa:	81 30       	cpi	r24, 0x01	; 1
    2cac:	19 f4       	brne	.+6      	; 0x2cb4 <ShowDebug+0x1d8>
    2cae:	81 ef       	ldi	r24, 0xF1	; 241
    2cb0:	93 e0       	ldi	r25, 0x03	; 3
    2cb2:	0a c0       	rjmp	.+20     	; 0x2cc8 <ShowDebug+0x1ec>
    2cb4:	82 30       	cpi	r24, 0x02	; 2
    2cb6:	19 f4       	brne	.+6      	; 0x2cbe <ShowDebug+0x1e2>
    2cb8:	8a ef       	ldi	r24, 0xFA	; 250
    2cba:	93 e0       	ldi	r25, 0x03	; 3
    2cbc:	05 c0       	rjmp	.+10     	; 0x2cc8 <ShowDebug+0x1ec>
    2cbe:	83 50       	subi	r24, 0x03	; 3
    2cc0:	82 30       	cpi	r24, 0x02	; 2
    2cc2:	20 f4       	brcc	.+8      	; 0x2ccc <ShowDebug+0x1f0>
    2cc4:	83 e0       	ldi	r24, 0x03	; 3
    2cc6:	94 e0       	ldi	r25, 0x04	; 4
    2cc8:	0e 94 43 19 	call	0x3286	; 0x3286 <LCD_WRiteString>
    2ccc:	f4 01       	movw	r30, r8
    2cce:	80 81       	ld	r24, Z
    2cd0:	81 30       	cpi	r24, 0x01	; 1
    2cd2:	09 f0       	breq	.+2      	; 0x2cd6 <ShowDebug+0x1fa>
    2cd4:	47 c0       	rjmp	.+142    	; 0x2d64 <ShowDebug+0x288>
    2cd6:	11 30       	cpi	r17, 0x01	; 1
    2cd8:	31 f4       	brne	.+12     	; 0x2ce6 <ShowDebug+0x20a>
    2cda:	cd 50       	subi	r28, 0x0D	; 13
    2cdc:	d7 4f       	sbci	r29, 0xF7	; 247
    2cde:	09 90       	ld	r0, Y+
    2ce0:	d8 81       	ld	r29, Y
    2ce2:	c0 2d       	mov	r28, r0
    2ce4:	16 c0       	rjmp	.+44     	; 0x2d12 <ShowDebug+0x236>
    2ce6:	12 30       	cpi	r17, 0x02	; 2
    2ce8:	41 f4       	brne	.+16     	; 0x2cfa <ShowDebug+0x21e>
    2cea:	cd 50       	subi	r28, 0x0D	; 13
    2cec:	d7 4f       	sbci	r29, 0xF7	; 247
    2cee:	09 90       	ld	r0, Y+
    2cf0:	d8 81       	ld	r29, Y
    2cf2:	c0 2d       	mov	r28, r0
    2cf4:	cb 56       	subi	r28, 0x6B	; 107
    2cf6:	df 4f       	sbci	r29, 0xFF	; 255
    2cf8:	0c c0       	rjmp	.+24     	; 0x2d12 <ShowDebug+0x236>
    2cfa:	13 30       	cpi	r17, 0x03	; 3
    2cfc:	41 f4       	brne	.+16     	; 0x2d0e <ShowDebug+0x232>
    2cfe:	cd 50       	subi	r28, 0x0D	; 13
    2d00:	d7 4f       	sbci	r29, 0xF7	; 247
    2d02:	09 90       	ld	r0, Y+
    2d04:	d8 81       	ld	r29, Y
    2d06:	c0 2d       	mov	r28, r0
    2d08:	c3 51       	subi	r28, 0x13	; 19
    2d0a:	de 4f       	sbci	r29, 0xFE	; 254
    2d0c:	02 c0       	rjmp	.+4      	; 0x2d12 <ShowDebug+0x236>
    2d0e:	c0 e0       	ldi	r28, 0x00	; 0
    2d10:	d0 e0       	ldi	r29, 0x00	; 0
    2d12:	66 e0       	ldi	r22, 0x06	; 6
    2d14:	8d 2d       	mov	r24, r13
    2d16:	0e 94 ca 18 	call	0x3194	; 0x3194 <LCD_TextGoTo>
    2d1a:	80 e8       	ldi	r24, 0x80	; 128
    2d1c:	93 e0       	ldi	r25, 0x03	; 3
    2d1e:	0e 94 43 19 	call	0x3286	; 0x3286 <LCD_WRiteString>
    2d22:	66 e0       	ldi	r22, 0x06	; 6
    2d24:	8d 2d       	mov	r24, r13
    2d26:	0e 94 ca 18 	call	0x3194	; 0x3194 <LCD_TextGoTo>
    2d2a:	9e 01       	movw	r18, r28
    2d2c:	2f 5f       	subi	r18, 0xFF	; 255
    2d2e:	3f 4f       	sbci	r19, 0xFF	; 255
    2d30:	a4 e6       	ldi	r26, 0x64	; 100
    2d32:	b0 e0       	ldi	r27, 0x00	; 0
    2d34:	0e 94 00 1d 	call	0x3a00	; 0x3a00 <__umulhisi3>
    2d38:	28 e7       	ldi	r18, 0x78	; 120
    2d3a:	32 e0       	ldi	r19, 0x02	; 2
    2d3c:	40 e0       	ldi	r20, 0x00	; 0
    2d3e:	50 e0       	ldi	r21, 0x00	; 0
    2d40:	0e 94 d8 1c 	call	0x39b0	; 0x39b0 <__udivmodsi4>
    2d44:	c9 01       	movw	r24, r18
    2d46:	0e 94 4f 19 	call	0x329e	; 0x329e <LCD_WriteINT>
    2d4a:	8c e0       	ldi	r24, 0x0C	; 12
    2d4c:	94 e0       	ldi	r25, 0x04	; 4
    2d4e:	df 91       	pop	r29
    2d50:	cf 91       	pop	r28
    2d52:	1f 91       	pop	r17
    2d54:	ff 90       	pop	r15
    2d56:	ef 90       	pop	r14
    2d58:	df 90       	pop	r13
    2d5a:	bf 90       	pop	r11
    2d5c:	9f 90       	pop	r9
    2d5e:	8f 90       	pop	r8
    2d60:	0c 94 43 19 	jmp	0x3286	; 0x3286 <LCD_WRiteString>
    2d64:	df 91       	pop	r29
    2d66:	cf 91       	pop	r28
    2d68:	1f 91       	pop	r17
    2d6a:	ff 90       	pop	r15
    2d6c:	ef 90       	pop	r14
    2d6e:	df 90       	pop	r13
    2d70:	bf 90       	pop	r11
    2d72:	9f 90       	pop	r9
    2d74:	8f 90       	pop	r8
    2d76:	08 95       	ret

00002d78 <ShowNormal>:
    2d78:	af 92       	push	r10
    2d7a:	bf 92       	push	r11
    2d7c:	cf 92       	push	r12
    2d7e:	df 92       	push	r13
    2d80:	ef 92       	push	r14
    2d82:	ff 92       	push	r15
    2d84:	0f 93       	push	r16
    2d86:	1f 93       	push	r17
    2d88:	cf 93       	push	r28
    2d8a:	df 93       	push	r29
    2d8c:	00 d0       	rcall	.+0      	; 0x2d8e <ShowNormal+0x16>
    2d8e:	00 d0       	rcall	.+0      	; 0x2d90 <ShowNormal+0x18>
    2d90:	cd b7       	in	r28, 0x3d	; 61
    2d92:	de b7       	in	r29, 0x3e	; 62
    2d94:	d8 2e       	mov	r13, r24
    2d96:	e6 2e       	mov	r14, r22
    2d98:	f8 2e       	mov	r15, r24
    2d9a:	ff 0c       	add	r15, r15
    2d9c:	ff 0c       	add	r15, r15
    2d9e:	ff 0c       	add	r15, r15
    2da0:	60 e0       	ldi	r22, 0x00	; 0
    2da2:	8f 2d       	mov	r24, r15
    2da4:	0e 94 ca 18 	call	0x3194	; 0x3194 <LCD_TextGoTo>
    2da8:	80 e8       	ldi	r24, 0x80	; 128
    2daa:	93 e0       	ldi	r25, 0x03	; 3
    2dac:	0e 94 43 19 	call	0x3286	; 0x3286 <LCD_WRiteString>
    2db0:	60 e0       	ldi	r22, 0x00	; 0
    2db2:	8f 2d       	mov	r24, r15
    2db4:	0e 94 ca 18 	call	0x3194	; 0x3194 <LCD_TextGoTo>
    2db8:	8e e0       	ldi	r24, 0x0E	; 14
    2dba:	94 e0       	ldi	r25, 0x04	; 4
    2dbc:	0e 94 43 19 	call	0x3286	; 0x3286 <LCD_WRiteString>
    2dc0:	0d 2d       	mov	r16, r13
    2dc2:	10 e0       	ldi	r17, 0x00	; 0
    2dc4:	c8 01       	movw	r24, r16
    2dc6:	01 96       	adiw	r24, 0x01	; 1
    2dc8:	0e 94 4f 19 	call	0x329e	; 0x329e <LCD_WriteINT>
    2dcc:	c8 01       	movw	r24, r16
    2dce:	82 51       	subi	r24, 0x12	; 18
    2dd0:	97 4f       	sbci	r25, 0xF7	; 247
    2dd2:	5c 01       	movw	r10, r24
    2dd4:	fc 01       	movw	r30, r24
    2dd6:	80 81       	ld	r24, Z
    2dd8:	81 50       	subi	r24, 0x01	; 1
    2dda:	61 e0       	ldi	r22, 0x01	; 1
    2ddc:	82 30       	cpi	r24, 0x02	; 2
    2dde:	c8 f5       	brcc	.+114    	; 0x2e52 <ShowNormal+0xda>
    2de0:	8f 2d       	mov	r24, r15
    2de2:	0e 94 ca 18 	call	0x3194	; 0x3194 <LCD_TextGoTo>
    2de6:	82 e9       	ldi	r24, 0x92	; 146
    2de8:	93 e0       	ldi	r25, 0x03	; 3
    2dea:	0e 94 43 19 	call	0x3286	; 0x3286 <LCD_WRiteString>
    2dee:	61 e0       	ldi	r22, 0x01	; 1
    2df0:	54 e0       	ldi	r21, 0x04	; 4
    2df2:	c5 2e       	mov	r12, r21
    2df4:	cf 0c       	add	r12, r15
    2df6:	8c 2d       	mov	r24, r12
    2df8:	0e 94 ca 18 	call	0x3194	; 0x3194 <LCD_TextGoTo>
    2dfc:	84 e8       	ldi	r24, 0x84	; 132
    2dfe:	93 e0       	ldi	r25, 0x03	; 3
    2e00:	0e 94 43 19 	call	0x3286	; 0x3286 <LCD_WRiteString>
    2e04:	61 e0       	ldi	r22, 0x01	; 1
    2e06:	8c 2d       	mov	r24, r12
    2e08:	0e 94 ca 18 	call	0x3194	; 0x3194 <LCD_TextGoTo>
    2e0c:	f8 01       	movw	r30, r16
    2e0e:	ee 0f       	add	r30, r30
    2e10:	ff 1f       	adc	r31, r31
    2e12:	ea 53       	subi	r30, 0x3A	; 58
    2e14:	f7 4f       	sbci	r31, 0xF7	; 247
    2e16:	80 81       	ld	r24, Z
    2e18:	91 81       	ldd	r25, Z+1	; 0x01
    2e1a:	0e 94 4f 19 	call	0x329e	; 0x329e <LCD_WriteINT>
    2e1e:	63 e0       	ldi	r22, 0x03	; 3
    2e20:	8f 2d       	mov	r24, r15
    2e22:	0e 94 ca 18 	call	0x3194	; 0x3194 <LCD_TextGoTo>
    2e26:	80 e8       	ldi	r24, 0x80	; 128
    2e28:	93 e0       	ldi	r25, 0x03	; 3
    2e2a:	0e 94 43 19 	call	0x3286	; 0x3286 <LCD_WRiteString>
    2e2e:	63 e0       	ldi	r22, 0x03	; 3
    2e30:	8f 2d       	mov	r24, r15
    2e32:	0e 94 ca 18 	call	0x3194	; 0x3194 <LCD_TextGoTo>
    2e36:	f8 01       	movw	r30, r16
    2e38:	e1 52       	subi	r30, 0x21	; 33
    2e3a:	f7 4f       	sbci	r31, 0xF7	; 247
    2e3c:	80 81       	ld	r24, Z
    2e3e:	81 30       	cpi	r24, 0x01	; 1
    2e40:	19 f4       	brne	.+6      	; 0x2e48 <ShowNormal+0xd0>
    2e42:	87 e9       	ldi	r24, 0x97	; 151
    2e44:	93 e0       	ldi	r25, 0x03	; 3
    2e46:	12 c0       	rjmp	.+36     	; 0x2e6c <ShowNormal+0xf4>
    2e48:	82 30       	cpi	r24, 0x02	; 2
    2e4a:	91 f4       	brne	.+36     	; 0x2e70 <ShowNormal+0xf8>
    2e4c:	80 ea       	ldi	r24, 0xA0	; 160
    2e4e:	93 e0       	ldi	r25, 0x03	; 3
    2e50:	0d c0       	rjmp	.+26     	; 0x2e6c <ShowNormal+0xf4>
    2e52:	8f 2d       	mov	r24, r15
    2e54:	0e 94 ca 18 	call	0x3194	; 0x3194 <LCD_TextGoTo>
    2e58:	80 e8       	ldi	r24, 0x80	; 128
    2e5a:	93 e0       	ldi	r25, 0x03	; 3
    2e5c:	0e 94 43 19 	call	0x3286	; 0x3286 <LCD_WRiteString>
    2e60:	63 e0       	ldi	r22, 0x03	; 3
    2e62:	8f 2d       	mov	r24, r15
    2e64:	0e 94 ca 18 	call	0x3194	; 0x3194 <LCD_TextGoTo>
    2e68:	80 e8       	ldi	r24, 0x80	; 128
    2e6a:	93 e0       	ldi	r25, 0x03	; 3
    2e6c:	0e 94 43 19 	call	0x3286	; 0x3286 <LCD_WRiteString>
    2e70:	62 e0       	ldi	r22, 0x02	; 2
    2e72:	8f 2d       	mov	r24, r15
    2e74:	0e 94 ca 18 	call	0x3194	; 0x3194 <LCD_TextGoTo>
    2e78:	ee 20       	and	r14, r14
    2e7a:	39 f0       	breq	.+14     	; 0x2e8a <ShowNormal+0x112>
    2e7c:	f5 01       	movw	r30, r10
    2e7e:	80 81       	ld	r24, Z
    2e80:	81 11       	cpse	r24, r1
    2e82:	06 c0       	rjmp	.+12     	; 0x2e90 <ShowNormal+0x118>
    2e84:	84 e1       	ldi	r24, 0x14	; 20
    2e86:	94 e0       	ldi	r25, 0x04	; 4
    2e88:	1a c0       	rjmp	.+52     	; 0x2ebe <ShowNormal+0x146>
    2e8a:	80 e8       	ldi	r24, 0x80	; 128
    2e8c:	93 e0       	ldi	r25, 0x03	; 3
    2e8e:	17 c0       	rjmp	.+46     	; 0x2ebe <ShowNormal+0x146>
    2e90:	f4 e0       	ldi	r31, 0x04	; 4
    2e92:	ef 12       	cpse	r14, r31
    2e94:	03 c0       	rjmp	.+6      	; 0x2e9c <ShowNormal+0x124>
    2e96:	84 ec       	ldi	r24, 0xC4	; 196
    2e98:	93 e0       	ldi	r25, 0x03	; 3
    2e9a:	11 c0       	rjmp	.+34     	; 0x2ebe <ShowNormal+0x146>
    2e9c:	81 e0       	ldi	r24, 0x01	; 1
    2e9e:	e8 12       	cpse	r14, r24
    2ea0:	03 c0       	rjmp	.+6      	; 0x2ea8 <ShowNormal+0x130>
    2ea2:	8d ec       	ldi	r24, 0xCD	; 205
    2ea4:	93 e0       	ldi	r25, 0x03	; 3
    2ea6:	0b c0       	rjmp	.+22     	; 0x2ebe <ShowNormal+0x146>
    2ea8:	92 e0       	ldi	r25, 0x02	; 2
    2eaa:	e9 12       	cpse	r14, r25
    2eac:	03 c0       	rjmp	.+6      	; 0x2eb4 <ShowNormal+0x13c>
    2eae:	8d e1       	ldi	r24, 0x1D	; 29
    2eb0:	94 e0       	ldi	r25, 0x04	; 4
    2eb2:	05 c0       	rjmp	.+10     	; 0x2ebe <ShowNormal+0x146>
    2eb4:	e3 e0       	ldi	r30, 0x03	; 3
    2eb6:	ee 12       	cpse	r14, r30
    2eb8:	04 c0       	rjmp	.+8      	; 0x2ec2 <ShowNormal+0x14a>
    2eba:	8f ed       	ldi	r24, 0xDF	; 223
    2ebc:	93 e0       	ldi	r25, 0x03	; 3
    2ebe:	0e 94 43 19 	call	0x3286	; 0x3286 <LCD_WRiteString>
    2ec2:	67 e0       	ldi	r22, 0x07	; 7
    2ec4:	8f 2d       	mov	r24, r15
    2ec6:	0e 94 ca 18 	call	0x3194	; 0x3194 <LCD_TextGoTo>
    2eca:	f5 01       	movw	r30, r10
    2ecc:	90 81       	ld	r25, Z
    2ece:	91 11       	cpse	r25, r1
    2ed0:	03 c0       	rjmp	.+6      	; 0x2ed8 <ShowNormal+0x160>
    2ed2:	86 e2       	ldi	r24, 0x26	; 38
    2ed4:	94 e0       	ldi	r25, 0x04	; 4
    2ed6:	0f c0       	rjmp	.+30     	; 0x2ef6 <ShowNormal+0x17e>
    2ed8:	91 30       	cpi	r25, 0x01	; 1
    2eda:	19 f4       	brne	.+6      	; 0x2ee2 <ShowNormal+0x16a>
    2edc:	8f e2       	ldi	r24, 0x2F	; 47
    2ede:	94 e0       	ldi	r25, 0x04	; 4
    2ee0:	0a c0       	rjmp	.+20     	; 0x2ef6 <ShowNormal+0x17e>
    2ee2:	92 30       	cpi	r25, 0x02	; 2
    2ee4:	19 f4       	brne	.+6      	; 0x2eec <ShowNormal+0x174>
    2ee6:	88 e3       	ldi	r24, 0x38	; 56
    2ee8:	94 e0       	ldi	r25, 0x04	; 4
    2eea:	05 c0       	rjmp	.+10     	; 0x2ef6 <ShowNormal+0x17e>
    2eec:	93 50       	subi	r25, 0x03	; 3
    2eee:	92 30       	cpi	r25, 0x02	; 2
    2ef0:	20 f4       	brcc	.+8      	; 0x2efa <ShowNormal+0x182>
    2ef2:	81 e4       	ldi	r24, 0x41	; 65
    2ef4:	94 e0       	ldi	r25, 0x04	; 4
    2ef6:	0e 94 43 19 	call	0x3286	; 0x3286 <LCD_WRiteString>
    2efa:	f5 01       	movw	r30, r10
    2efc:	80 81       	ld	r24, Z
    2efe:	f0 e3       	ldi	r31, 0x30	; 48
    2f00:	df 9e       	mul	r13, r31
    2f02:	60 01       	movw	r12, r0
    2f04:	11 24       	eor	r1, r1
    2f06:	81 30       	cpi	r24, 0x01	; 1
    2f08:	09 f0       	breq	.+2      	; 0x2f0c <ShowNormal+0x194>
    2f0a:	72 c0       	rjmp	.+228    	; 0x2ff0 <ShowNormal+0x278>
    2f0c:	e8 12       	cpse	r14, r24
    2f0e:	08 c0       	rjmp	.+16     	; 0x2f20 <ShowNormal+0x1a8>
    2f10:	f8 01       	movw	r30, r16
    2f12:	ee 0f       	add	r30, r30
    2f14:	ff 1f       	adc	r31, r31
    2f16:	ed 50       	subi	r30, 0x0D	; 13
    2f18:	f7 4f       	sbci	r31, 0xF7	; 247
    2f1a:	00 81       	ld	r16, Z
    2f1c:	11 81       	ldd	r17, Z+1	; 0x01
    2f1e:	1c c0       	rjmp	.+56     	; 0x2f58 <ShowNormal+0x1e0>
    2f20:	92 e0       	ldi	r25, 0x02	; 2
    2f22:	e9 12       	cpse	r14, r25
    2f24:	0a c0       	rjmp	.+20     	; 0x2f3a <ShowNormal+0x1c2>
    2f26:	f8 01       	movw	r30, r16
    2f28:	ee 0f       	add	r30, r30
    2f2a:	ff 1f       	adc	r31, r31
    2f2c:	ed 50       	subi	r30, 0x0D	; 13
    2f2e:	f7 4f       	sbci	r31, 0xF7	; 247
    2f30:	00 81       	ld	r16, Z
    2f32:	11 81       	ldd	r17, Z+1	; 0x01
    2f34:	0b 56       	subi	r16, 0x6B	; 107
    2f36:	1f 4f       	sbci	r17, 0xFF	; 255
    2f38:	0f c0       	rjmp	.+30     	; 0x2f58 <ShowNormal+0x1e0>
    2f3a:	e3 e0       	ldi	r30, 0x03	; 3
    2f3c:	ee 12       	cpse	r14, r30
    2f3e:	0a c0       	rjmp	.+20     	; 0x2f54 <ShowNormal+0x1dc>
    2f40:	f8 01       	movw	r30, r16
    2f42:	ee 0f       	add	r30, r30
    2f44:	ff 1f       	adc	r31, r31
    2f46:	ed 50       	subi	r30, 0x0D	; 13
    2f48:	f7 4f       	sbci	r31, 0xF7	; 247
    2f4a:	00 81       	ld	r16, Z
    2f4c:	11 81       	ldd	r17, Z+1	; 0x01
    2f4e:	03 51       	subi	r16, 0x13	; 19
    2f50:	1e 4f       	sbci	r17, 0xFE	; 254
    2f52:	02 c0       	rjmp	.+4      	; 0x2f58 <ShowNormal+0x1e0>
    2f54:	00 e0       	ldi	r16, 0x00	; 0
    2f56:	10 e0       	ldi	r17, 0x00	; 0
    2f58:	65 e0       	ldi	r22, 0x05	; 5
    2f5a:	8f 2d       	mov	r24, r15
    2f5c:	0e 94 ca 18 	call	0x3194	; 0x3194 <LCD_TextGoTo>
    2f60:	80 e8       	ldi	r24, 0x80	; 128
    2f62:	93 e0       	ldi	r25, 0x03	; 3
    2f64:	0e 94 43 19 	call	0x3286	; 0x3286 <LCD_WRiteString>
    2f68:	65 e0       	ldi	r22, 0x05	; 5
    2f6a:	82 e0       	ldi	r24, 0x02	; 2
    2f6c:	8f 0d       	add	r24, r15
    2f6e:	0e 94 ca 18 	call	0x3194	; 0x3194 <LCD_TextGoTo>
    2f72:	98 01       	movw	r18, r16
    2f74:	2f 5f       	subi	r18, 0xFF	; 255
    2f76:	3f 4f       	sbci	r19, 0xFF	; 255
    2f78:	a4 e6       	ldi	r26, 0x64	; 100
    2f7a:	b0 e0       	ldi	r27, 0x00	; 0
    2f7c:	0e 94 00 1d 	call	0x3a00	; 0x3a00 <__umulhisi3>
    2f80:	28 e7       	ldi	r18, 0x78	; 120
    2f82:	32 e0       	ldi	r19, 0x02	; 2
    2f84:	40 e0       	ldi	r20, 0x00	; 0
    2f86:	50 e0       	ldi	r21, 0x00	; 0
    2f88:	0e 94 d8 1c 	call	0x39b0	; 0x39b0 <__udivmodsi4>
    2f8c:	c9 01       	movw	r24, r18
    2f8e:	29 83       	std	Y+1, r18	; 0x01
    2f90:	3a 83       	std	Y+2, r19	; 0x02
    2f92:	4b 83       	std	Y+3, r20	; 0x03
    2f94:	5c 83       	std	Y+4, r21	; 0x04
    2f96:	0e 94 4f 19 	call	0x329e	; 0x329e <LCD_WriteINT>
    2f9a:	8c e0       	ldi	r24, 0x0C	; 12
    2f9c:	94 e0       	ldi	r25, 0x04	; 4
    2f9e:	0e 94 43 19 	call	0x3286	; 0x3286 <LCD_WRiteString>
    2fa2:	aa e2       	ldi	r26, 0x2A	; 42
    2fa4:	b0 e0       	ldi	r27, 0x00	; 0
    2fa6:	29 81       	ldd	r18, Y+1	; 0x01
    2fa8:	3a 81       	ldd	r19, Y+2	; 0x02
    2faa:	4b 81       	ldd	r20, Y+3	; 0x03
    2fac:	5c 81       	ldd	r21, Y+4	; 0x04
    2fae:	0e 94 0f 1d 	call	0x3a1e	; 0x3a1e <__muluhisi3>
    2fb2:	24 e6       	ldi	r18, 0x64	; 100
    2fb4:	30 e0       	ldi	r19, 0x00	; 0
    2fb6:	40 e0       	ldi	r20, 0x00	; 0
    2fb8:	50 e0       	ldi	r21, 0x00	; 0
    2fba:	0e 94 d8 1c 	call	0x39b0	; 0x39b0 <__udivmodsi4>
    2fbe:	a9 01       	movw	r20, r18
    2fc0:	21 15       	cp	r18, r1
    2fc2:	31 05       	cpc	r19, r1
    2fc4:	11 f4       	brne	.+4      	; 0x2fca <ShowNormal+0x252>
    2fc6:	41 e0       	ldi	r20, 0x01	; 1
    2fc8:	50 e0       	ldi	r21, 0x00	; 0
    2fca:	21 e0       	ldi	r18, 0x01	; 1
    2fcc:	30 e0       	ldi	r19, 0x00	; 0
    2fce:	62 e3       	ldi	r22, 0x32	; 50
    2fd0:	70 e0       	ldi	r23, 0x00	; 0
    2fd2:	c6 01       	movw	r24, r12
    2fd4:	0e 94 a6 03 	call	0x74c	; 0x74c <drawFastHLine>
    2fd8:	21 e0       	ldi	r18, 0x01	; 1
    2fda:	30 e0       	ldi	r19, 0x00	; 0
    2fdc:	45 e0       	ldi	r20, 0x05	; 5
    2fde:	50 e0       	ldi	r21, 0x00	; 0
    2fe0:	60 e3       	ldi	r22, 0x30	; 48
    2fe2:	70 e0       	ldi	r23, 0x00	; 0
    2fe4:	c6 01       	movw	r24, r12
    2fe6:	0e 94 98 03 	call	0x730	; 0x730 <drawFastVLine>
    2fea:	21 e0       	ldi	r18, 0x01	; 1
    2fec:	30 e0       	ldi	r19, 0x00	; 0
    2fee:	1c c0       	rjmp	.+56     	; 0x3028 <ShowNormal+0x2b0>
    2ff0:	65 e0       	ldi	r22, 0x05	; 5
    2ff2:	8f 2d       	mov	r24, r15
    2ff4:	0e 94 ca 18 	call	0x3194	; 0x3194 <LCD_TextGoTo>
    2ff8:	80 e8       	ldi	r24, 0x80	; 128
    2ffa:	93 e0       	ldi	r25, 0x03	; 3
    2ffc:	0e 94 43 19 	call	0x3286	; 0x3286 <LCD_WRiteString>
    3000:	20 e0       	ldi	r18, 0x00	; 0
    3002:	30 e0       	ldi	r19, 0x00	; 0
    3004:	4a e2       	ldi	r20, 0x2A	; 42
    3006:	50 e0       	ldi	r21, 0x00	; 0
    3008:	62 e3       	ldi	r22, 0x32	; 50
    300a:	70 e0       	ldi	r23, 0x00	; 0
    300c:	c6 01       	movw	r24, r12
    300e:	0e 94 a6 03 	call	0x74c	; 0x74c <drawFastHLine>
    3012:	20 e0       	ldi	r18, 0x00	; 0
    3014:	30 e0       	ldi	r19, 0x00	; 0
    3016:	45 e0       	ldi	r20, 0x05	; 5
    3018:	50 e0       	ldi	r21, 0x00	; 0
    301a:	60 e3       	ldi	r22, 0x30	; 48
    301c:	70 e0       	ldi	r23, 0x00	; 0
    301e:	c6 01       	movw	r24, r12
    3020:	0e 94 98 03 	call	0x730	; 0x730 <drawFastVLine>
    3024:	20 e0       	ldi	r18, 0x00	; 0
    3026:	30 e0       	ldi	r19, 0x00	; 0
    3028:	45 e0       	ldi	r20, 0x05	; 5
    302a:	50 e0       	ldi	r21, 0x00	; 0
    302c:	60 e3       	ldi	r22, 0x30	; 48
    302e:	70 e0       	ldi	r23, 0x00	; 0
    3030:	c6 01       	movw	r24, r12
    3032:	8a 96       	adiw	r24, 0x2a	; 42
    3034:	0f 90       	pop	r0
    3036:	0f 90       	pop	r0
    3038:	0f 90       	pop	r0
    303a:	0f 90       	pop	r0
    303c:	df 91       	pop	r29
    303e:	cf 91       	pop	r28
    3040:	1f 91       	pop	r17
    3042:	0f 91       	pop	r16
    3044:	ff 90       	pop	r15
    3046:	ef 90       	pop	r14
    3048:	df 90       	pop	r13
    304a:	cf 90       	pop	r12
    304c:	bf 90       	pop	r11
    304e:	af 90       	pop	r10
    3050:	0c 94 98 03 	jmp	0x730	; 0x730 <drawFastVLine>

00003054 <ShowTestInfo>:
    3054:	90 91 0a 01 	lds	r25, 0x010A
    3058:	91 11       	cpse	r25, r1
    305a:	02 c0       	rjmp	.+4      	; 0x3060 <ShowTestInfo+0xc>
    305c:	0c 94 6e 15 	jmp	0x2adc	; 0x2adc <ShowDebug>
    3060:	91 30       	cpi	r25, 0x01	; 1
    3062:	11 f4       	brne	.+4      	; 0x3068 <ShowTestInfo+0x14>
    3064:	0c 94 bc 16 	jmp	0x2d78	; 0x2d78 <ShowNormal>
    3068:	08 95       	ret

0000306a <delay>:
    306a:	cf 93       	push	r28
    306c:	df 93       	push	r29
    306e:	1f 92       	push	r1
    3070:	cd b7       	in	r28, 0x3d	; 61
    3072:	de b7       	in	r29, 0x3e	; 62
    3074:	19 82       	std	Y+1, r1	; 0x01
    3076:	89 81       	ldd	r24, Y+1	; 0x01
    3078:	83 30       	cpi	r24, 0x03	; 3
    307a:	28 f4       	brcc	.+10     	; 0x3086 <delay+0x1c>
    307c:	00 00       	nop
    307e:	89 81       	ldd	r24, Y+1	; 0x01
    3080:	8f 5f       	subi	r24, 0xFF	; 255
    3082:	89 83       	std	Y+1, r24	; 0x01
    3084:	f8 cf       	rjmp	.-16     	; 0x3076 <delay+0xc>
    3086:	0f 90       	pop	r0
    3088:	df 91       	pop	r29
    308a:	cf 91       	pop	r28
    308c:	08 95       	ret

0000308e <LCD_InitalizeInterface>:
    308e:	8f ef       	ldi	r24, 0xFF	; 255
    3090:	84 bb       	out	0x14, r24	; 20
    3092:	90 ee       	ldi	r25, 0xE0	; 224
    3094:	91 bb       	out	0x11, r25	; 17
    3096:	83 e0       	ldi	r24, 0x03	; 3
    3098:	80 93 64 00 	sts	0x0064, r24
    309c:	92 bb       	out	0x12, r25	; 18
    309e:	80 93 65 00 	sts	0x0065, r24
    30a2:	08 95       	ret

000030a4 <LCD_ChceckStatus>:
    30a4:	14 ba       	out	0x14, r1	; 20
    30a6:	95 98       	cbi	0x12, 5	; 18
    30a8:	e5 e6       	ldi	r30, 0x65	; 101
    30aa:	f0 e0       	ldi	r31, 0x00	; 0
    30ac:	80 81       	ld	r24, Z
    30ae:	8e 7f       	andi	r24, 0xFE	; 254
    30b0:	80 83       	st	Z, r24
    30b2:	82 e1       	ldi	r24, 0x12	; 18
    30b4:	8a 95       	dec	r24
    30b6:	f1 f7       	brne	.-4      	; 0x30b4 <LCD_ChceckStatus+0x10>
    30b8:	00 c0       	rjmp	.+0      	; 0x30ba <LCD_ChceckStatus+0x16>
    30ba:	83 b3       	in	r24, 0x13	; 19
    30bc:	9f ef       	ldi	r25, 0xFF	; 255
    30be:	94 bb       	out	0x14, r25	; 20
    30c0:	95 9a       	sbi	0x12, 5	; 18
    30c2:	90 81       	ld	r25, Z
    30c4:	91 60       	ori	r25, 0x01	; 1
    30c6:	90 83       	st	Z, r25
    30c8:	08 95       	ret

000030ca <LCD_WRiteCommand>:
    30ca:	cf 93       	push	r28
    30cc:	c8 2f       	mov	r28, r24
    30ce:	0e 94 52 18 	call	0x30a4	; 0x30a4 <LCD_ChceckStatus>
    30d2:	83 70       	andi	r24, 0x03	; 3
    30d4:	e1 f3       	breq	.-8      	; 0x30ce <LCD_WRiteCommand+0x4>
    30d6:	c5 bb       	out	0x15, r28	; 21
    30d8:	96 98       	cbi	0x12, 6	; 18
    30da:	80 91 65 00 	lds	r24, 0x0065
    30de:	8e 7f       	andi	r24, 0xFE	; 254
    30e0:	80 93 65 00 	sts	0x0065, r24
    30e4:	82 e1       	ldi	r24, 0x12	; 18
    30e6:	8a 95       	dec	r24
    30e8:	f1 f7       	brne	.-4      	; 0x30e6 <LCD_WRiteCommand+0x1c>
    30ea:	00 c0       	rjmp	.+0      	; 0x30ec <LCD_WRiteCommand+0x22>
    30ec:	96 9a       	sbi	0x12, 6	; 18
    30ee:	80 91 65 00 	lds	r24, 0x0065
    30f2:	81 60       	ori	r24, 0x01	; 1
    30f4:	80 93 65 00 	sts	0x0065, r24
    30f8:	cf 91       	pop	r28
    30fa:	08 95       	ret

000030fc <LCD_WRiteData>:
    30fc:	cf 93       	push	r28
    30fe:	c8 2f       	mov	r28, r24
    3100:	0e 94 52 18 	call	0x30a4	; 0x30a4 <LCD_ChceckStatus>
    3104:	83 70       	andi	r24, 0x03	; 3
    3106:	e1 f3       	breq	.-8      	; 0x3100 <LCD_WRiteData+0x4>
    3108:	c5 bb       	out	0x15, r28	; 21
    310a:	82 b3       	in	r24, 0x12	; 18
    310c:	8f 73       	andi	r24, 0x3F	; 63
    310e:	82 bb       	out	0x12, r24	; 18
    3110:	80 91 65 00 	lds	r24, 0x0065
    3114:	8e 7f       	andi	r24, 0xFE	; 254
    3116:	80 93 65 00 	sts	0x0065, r24
    311a:	82 e1       	ldi	r24, 0x12	; 18
    311c:	8a 95       	dec	r24
    311e:	f1 f7       	brne	.-4      	; 0x311c <LCD_WRiteData+0x20>
    3120:	00 c0       	rjmp	.+0      	; 0x3122 <LCD_WRiteData+0x26>
    3122:	82 b3       	in	r24, 0x12	; 18
    3124:	80 6c       	ori	r24, 0xC0	; 192
    3126:	82 bb       	out	0x12, r24	; 18
    3128:	80 91 65 00 	lds	r24, 0x0065
    312c:	81 60       	ori	r24, 0x01	; 1
    312e:	80 93 65 00 	sts	0x0065, r24
    3132:	cf 91       	pop	r28
    3134:	08 95       	ret

00003136 <LCD_ReadData>:
    3136:	0e 94 52 18 	call	0x30a4	; 0x30a4 <LCD_ChceckStatus>
    313a:	83 70       	andi	r24, 0x03	; 3
    313c:	e1 f3       	breq	.-8      	; 0x3136 <LCD_ReadData>
    313e:	14 ba       	out	0x14, r1	; 20
    3140:	82 b3       	in	r24, 0x12	; 18
    3142:	8f 75       	andi	r24, 0x5F	; 95
    3144:	82 bb       	out	0x12, r24	; 18
    3146:	80 91 65 00 	lds	r24, 0x0065
    314a:	8e 7f       	andi	r24, 0xFE	; 254
    314c:	80 93 65 00 	sts	0x0065, r24
    3150:	82 e1       	ldi	r24, 0x12	; 18
    3152:	8a 95       	dec	r24
    3154:	f1 f7       	brne	.-4      	; 0x3152 <LCD_ReadData+0x1c>
    3156:	00 c0       	rjmp	.+0      	; 0x3158 <LCD_ReadData+0x22>
    3158:	83 b3       	in	r24, 0x13	; 19
    315a:	92 b3       	in	r25, 0x12	; 18
    315c:	90 6a       	ori	r25, 0xA0	; 160
    315e:	92 bb       	out	0x12, r25	; 18
    3160:	90 91 65 00 	lds	r25, 0x0065
    3164:	91 60       	ori	r25, 0x01	; 1
    3166:	90 93 65 00 	sts	0x0065, r25
    316a:	9f ef       	ldi	r25, 0xFF	; 255
    316c:	94 bb       	out	0x14, r25	; 20
    316e:	08 95       	ret

00003170 <GLCD_SetAddressPointer>:
    3170:	cf 93       	push	r28
    3172:	df 93       	push	r29
    3174:	1f 92       	push	r1
    3176:	cd b7       	in	r28, 0x3d	; 61
    3178:	de b7       	in	r29, 0x3e	; 62
    317a:	99 83       	std	Y+1, r25	; 0x01
    317c:	0e 94 7e 18 	call	0x30fc	; 0x30fc <LCD_WRiteData>
    3180:	99 81       	ldd	r25, Y+1	; 0x01
    3182:	89 2f       	mov	r24, r25
    3184:	0e 94 7e 18 	call	0x30fc	; 0x30fc <LCD_WRiteData>
    3188:	84 e2       	ldi	r24, 0x24	; 36
    318a:	0f 90       	pop	r0
    318c:	df 91       	pop	r29
    318e:	cf 91       	pop	r28
    3190:	0c 94 65 18 	jmp	0x30ca	; 0x30ca <LCD_WRiteCommand>

00003194 <LCD_TextGoTo>:
    3194:	28 e2       	ldi	r18, 0x28	; 40
    3196:	62 9f       	mul	r22, r18
    3198:	b0 01       	movw	r22, r0
    319a:	11 24       	eor	r1, r1
    319c:	9b 01       	movw	r18, r22
    319e:	28 0f       	add	r18, r24
    31a0:	31 1d       	adc	r19, r1
    31a2:	c9 01       	movw	r24, r18
    31a4:	0c 94 b8 18 	jmp	0x3170	; 0x3170 <GLCD_SetAddressPointer>

000031a8 <LCD_WRiteDisplayData>:
    31a8:	0e 94 7e 18 	call	0x30fc	; 0x30fc <LCD_WRiteData>
    31ac:	80 ec       	ldi	r24, 0xC0	; 192
    31ae:	0c 94 65 18 	jmp	0x30ca	; 0x30ca <LCD_WRiteCommand>

000031b2 <LCD_ClearText>:
    31b2:	cf 93       	push	r28
    31b4:	df 93       	push	r29
    31b6:	80 e0       	ldi	r24, 0x00	; 0
    31b8:	90 e0       	ldi	r25, 0x00	; 0
    31ba:	0e 94 b8 18 	call	0x3170	; 0x3170 <GLCD_SetAddressPointer>
    31be:	c0 e4       	ldi	r28, 0x40	; 64
    31c0:	d1 e0       	ldi	r29, 0x01	; 1
    31c2:	80 e0       	ldi	r24, 0x00	; 0
    31c4:	0e 94 d4 18 	call	0x31a8	; 0x31a8 <LCD_WRiteDisplayData>
    31c8:	21 97       	sbiw	r28, 0x01	; 1
    31ca:	20 97       	sbiw	r28, 0x00	; 0
    31cc:	d1 f7       	brne	.-12     	; 0x31c2 <LCD_ClearText+0x10>
    31ce:	df 91       	pop	r29
    31d0:	cf 91       	pop	r28
    31d2:	08 95       	ret

000031d4 <LCD_ClearTextBlock>:
    31d4:	ef 92       	push	r14
    31d6:	ff 92       	push	r15
    31d8:	0f 93       	push	r16
    31da:	1f 93       	push	r17
    31dc:	cf 93       	push	r28
    31de:	df 93       	push	r29
    31e0:	c8 2f       	mov	r28, r24
    31e2:	80 e0       	ldi	r24, 0x00	; 0
    31e4:	90 e0       	ldi	r25, 0x00	; 0
    31e6:	0e 94 b8 18 	call	0x3170	; 0x3170 <GLCD_SetAddressPointer>
    31ea:	2c 2f       	mov	r18, r28
    31ec:	30 e0       	ldi	r19, 0x00	; 0
    31ee:	21 50       	subi	r18, 0x01	; 1
    31f0:	31 09       	sbc	r19, r1
    31f2:	83 e0       	ldi	r24, 0x03	; 3
    31f4:	22 0f       	add	r18, r18
    31f6:	33 1f       	adc	r19, r19
    31f8:	8a 95       	dec	r24
    31fa:	e1 f7       	brne	.-8      	; 0x31f4 <LCD_ClearTextBlock+0x20>
    31fc:	e9 01       	movw	r28, r18
    31fe:	c0 5b       	subi	r28, 0xB0	; 176
    3200:	df 4f       	sbci	r29, 0xFF	; 255
    3202:	79 01       	movw	r14, r18
    3204:	80 ec       	ldi	r24, 0xC0	; 192
    3206:	e8 1a       	sub	r14, r24
    3208:	8e ef       	ldi	r24, 0xFE	; 254
    320a:	f8 0a       	sbc	r15, r24
    320c:	ce 01       	movw	r24, r28
    320e:	0e 94 b8 18 	call	0x3170	; 0x3170 <GLCD_SetAddressPointer>
    3212:	08 e0       	ldi	r16, 0x08	; 8
    3214:	10 e0       	ldi	r17, 0x00	; 0
    3216:	80 e0       	ldi	r24, 0x00	; 0
    3218:	0e 94 d4 18 	call	0x31a8	; 0x31a8 <LCD_WRiteDisplayData>
    321c:	01 50       	subi	r16, 0x01	; 1
    321e:	11 09       	sbc	r17, r1
    3220:	01 15       	cp	r16, r1
    3222:	11 05       	cpc	r17, r1
    3224:	c1 f7       	brne	.-16     	; 0x3216 <LCD_ClearTextBlock+0x42>
    3226:	a8 96       	adiw	r28, 0x28	; 40
    3228:	ce 15       	cp	r28, r14
    322a:	df 05       	cpc	r29, r15
    322c:	79 f7       	brne	.-34     	; 0x320c <LCD_ClearTextBlock+0x38>
    322e:	df 91       	pop	r29
    3230:	cf 91       	pop	r28
    3232:	1f 91       	pop	r17
    3234:	0f 91       	pop	r16
    3236:	ff 90       	pop	r15
    3238:	ef 90       	pop	r14
    323a:	08 95       	ret

0000323c <LCD_ClearCG>:
    323c:	cf 93       	push	r28
    323e:	df 93       	push	r29
    3240:	80 e0       	ldi	r24, 0x00	; 0
    3242:	90 e1       	ldi	r25, 0x10	; 16
    3244:	0e 94 b8 18 	call	0x3170	; 0x3170 <GLCD_SetAddressPointer>
    3248:	c0 e0       	ldi	r28, 0x00	; 0
    324a:	d8 e0       	ldi	r29, 0x08	; 8
    324c:	80 e0       	ldi	r24, 0x00	; 0
    324e:	0e 94 d4 18 	call	0x31a8	; 0x31a8 <LCD_WRiteDisplayData>
    3252:	21 97       	sbiw	r28, 0x01	; 1
    3254:	20 97       	sbiw	r28, 0x00	; 0
    3256:	d1 f7       	brne	.-12     	; 0x324c <LCD_ClearCG+0x10>
    3258:	df 91       	pop	r29
    325a:	cf 91       	pop	r28
    325c:	08 95       	ret

0000325e <LCD_ClearGraphic>:
    325e:	cf 93       	push	r28
    3260:	df 93       	push	r29
    3262:	80 e4       	ldi	r24, 0x40	; 64
    3264:	91 e0       	ldi	r25, 0x01	; 1
    3266:	0e 94 b8 18 	call	0x3170	; 0x3170 <GLCD_SetAddressPointer>
    326a:	c0 e0       	ldi	r28, 0x00	; 0
    326c:	da e0       	ldi	r29, 0x0A	; 10
    326e:	80 e0       	ldi	r24, 0x00	; 0
    3270:	0e 94 d4 18 	call	0x31a8	; 0x31a8 <LCD_WRiteDisplayData>
    3274:	21 97       	sbiw	r28, 0x01	; 1
    3276:	20 97       	sbiw	r28, 0x00	; 0
    3278:	d1 f7       	brne	.-12     	; 0x326e <LCD_ClearGraphic+0x10>
    327a:	df 91       	pop	r29
    327c:	cf 91       	pop	r28
    327e:	08 95       	ret

00003280 <LCD_WRiteChar>:
    3280:	80 52       	subi	r24, 0x20	; 32
    3282:	0c 94 d4 18 	jmp	0x31a8	; 0x31a8 <LCD_WRiteDisplayData>

00003286 <LCD_WRiteString>:
    3286:	cf 93       	push	r28
    3288:	df 93       	push	r29
    328a:	ec 01       	movw	r28, r24
    328c:	89 91       	ld	r24, Y+
    328e:	88 23       	and	r24, r24
    3290:	19 f0       	breq	.+6      	; 0x3298 <LCD_WRiteString+0x12>
    3292:	0e 94 40 19 	call	0x3280	; 0x3280 <LCD_WRiteChar>
    3296:	fa cf       	rjmp	.-12     	; 0x328c <LCD_WRiteString+0x6>
    3298:	df 91       	pop	r29
    329a:	cf 91       	pop	r28
    329c:	08 95       	ret

0000329e <LCD_WriteINT>:
    329e:	cf 93       	push	r28
    32a0:	df 93       	push	r29
    32a2:	cd b7       	in	r28, 0x3d	; 61
    32a4:	de b7       	in	r29, 0x3e	; 62
    32a6:	60 97       	sbiw	r28, 0x10	; 16
    32a8:	0f b6       	in	r0, 0x3f	; 63
    32aa:	f8 94       	cli
    32ac:	de bf       	out	0x3e, r29	; 62
    32ae:	0f be       	out	0x3f, r0	; 63
    32b0:	cd bf       	out	0x3d, r28	; 61
    32b2:	4a e0       	ldi	r20, 0x0A	; 10
    32b4:	be 01       	movw	r22, r28
    32b6:	6f 5f       	subi	r22, 0xFF	; 255
    32b8:	7f 4f       	sbci	r23, 0xFF	; 255
    32ba:	0e 94 31 1f 	call	0x3e62	; 0x3e62 <__itoa_ncheck>
    32be:	0e 94 43 19 	call	0x3286	; 0x3286 <LCD_WRiteString>
    32c2:	60 96       	adiw	r28, 0x10	; 16
    32c4:	0f b6       	in	r0, 0x3f	; 63
    32c6:	f8 94       	cli
    32c8:	de bf       	out	0x3e, r29	; 62
    32ca:	0f be       	out	0x3f, r0	; 63
    32cc:	cd bf       	out	0x3d, r28	; 61
    32ce:	df 91       	pop	r29
    32d0:	cf 91       	pop	r28
    32d2:	08 95       	ret

000032d4 <LCD_WRiteStringPgm_p>:
    32d4:	cf 93       	push	r28
    32d6:	df 93       	push	r29
    32d8:	fc 01       	movw	r30, r24
    32da:	84 91       	lpm	r24, Z
    32dc:	ef 01       	movw	r28, r30
    32de:	21 96       	adiw	r28, 0x01	; 1
    32e0:	88 23       	and	r24, r24
    32e2:	21 f0       	breq	.+8      	; 0x32ec <LCD_WRiteStringPgm_p+0x18>
    32e4:	0e 94 40 19 	call	0x3280	; 0x3280 <LCD_WRiteChar>
    32e8:	fe 01       	movw	r30, r28
    32ea:	f7 cf       	rjmp	.-18     	; 0x32da <LCD_WRiteStringPgm_p+0x6>
    32ec:	df 91       	pop	r29
    32ee:	cf 91       	pop	r28
    32f0:	08 95       	ret

000032f2 <LCD_DefineCharacter>:
    32f2:	ef 92       	push	r14
    32f4:	ff 92       	push	r15
    32f6:	1f 93       	push	r17
    32f8:	cf 93       	push	r28
    32fa:	df 93       	push	r29
    32fc:	00 d0       	rcall	.+0      	; 0x32fe <LCD_DefineCharacter+0xc>
    32fe:	cd b7       	in	r28, 0x3d	; 61
    3300:	de b7       	in	r29, 0x3e	; 62
    3302:	90 e0       	ldi	r25, 0x00	; 0
    3304:	9e 5f       	subi	r25, 0xFE	; 254
    3306:	23 e0       	ldi	r18, 0x03	; 3
    3308:	88 0f       	add	r24, r24
    330a:	99 1f       	adc	r25, r25
    330c:	2a 95       	dec	r18
    330e:	e1 f7       	brne	.-8      	; 0x3308 <LCD_DefineCharacter+0x16>
    3310:	69 83       	std	Y+1, r22	; 0x01
    3312:	7a 83       	std	Y+2, r23	; 0x02
    3314:	0e 94 b8 18 	call	0x3170	; 0x3170 <GLCD_SetAddressPointer>
    3318:	69 81       	ldd	r22, Y+1	; 0x01
    331a:	e6 2e       	mov	r14, r22
    331c:	7a 81       	ldd	r23, Y+2	; 0x02
    331e:	f7 2e       	mov	r15, r23
    3320:	18 e0       	ldi	r17, 0x08	; 8
    3322:	f7 01       	movw	r30, r14
    3324:	81 91       	ld	r24, Z+
    3326:	7f 01       	movw	r14, r30
    3328:	0e 94 d4 18 	call	0x31a8	; 0x31a8 <LCD_WRiteDisplayData>
    332c:	11 50       	subi	r17, 0x01	; 1
    332e:	c9 f7       	brne	.-14     	; 0x3322 <LCD_DefineCharacter+0x30>
    3330:	0f 90       	pop	r0
    3332:	0f 90       	pop	r0
    3334:	df 91       	pop	r29
    3336:	cf 91       	pop	r28
    3338:	1f 91       	pop	r17
    333a:	ff 90       	pop	r15
    333c:	ef 90       	pop	r14
    333e:	08 95       	ret

00003340 <LCD_SetPixel>:
    3340:	1f 93       	push	r17
    3342:	cf 93       	push	r28
    3344:	df 93       	push	r29
    3346:	1f 92       	push	r1
    3348:	cd b7       	in	r28, 0x3d	; 61
    334a:	de b7       	in	r29, 0x3e	; 62
    334c:	26 2f       	mov	r18, r22
    334e:	66 e0       	ldi	r22, 0x06	; 6
    3350:	0e 94 cc 1c 	call	0x3998	; 0x3998 <__udivmodqi4>
    3354:	19 2f       	mov	r17, r25
    3356:	90 e0       	ldi	r25, 0x00	; 0
    3358:	80 5c       	subi	r24, 0xC0	; 192
    335a:	9e 4f       	sbci	r25, 0xFE	; 254
    335c:	38 e2       	ldi	r19, 0x28	; 40
    335e:	23 9f       	mul	r18, r19
    3360:	80 0d       	add	r24, r0
    3362:	91 1d       	adc	r25, r1
    3364:	11 24       	eor	r1, r1
    3366:	49 83       	std	Y+1, r20	; 0x01
    3368:	0e 94 b8 18 	call	0x3170	; 0x3170 <GLCD_SetAddressPointer>
    336c:	85 ec       	ldi	r24, 0xC5	; 197
    336e:	0e 94 65 18 	call	0x30ca	; 0x30ca <LCD_WRiteCommand>
    3372:	0e 94 9b 18 	call	0x3136	; 0x3136 <LCD_ReadData>
    3376:	21 2f       	mov	r18, r17
    3378:	30 e0       	ldi	r19, 0x00	; 0
    337a:	49 81       	ldd	r20, Y+1	; 0x01
    337c:	44 23       	and	r20, r20
    337e:	69 f0       	breq	.+26     	; 0x339a <LCD_SetPixel+0x5a>
    3380:	45 e0       	ldi	r20, 0x05	; 5
    3382:	50 e0       	ldi	r21, 0x00	; 0
    3384:	42 1b       	sub	r20, r18
    3386:	53 0b       	sbc	r21, r19
    3388:	21 e0       	ldi	r18, 0x01	; 1
    338a:	30 e0       	ldi	r19, 0x00	; 0
    338c:	04 2e       	mov	r0, r20
    338e:	01 c0       	rjmp	.+2      	; 0x3392 <LCD_SetPixel+0x52>
    3390:	22 0f       	add	r18, r18
    3392:	0a 94       	dec	r0
    3394:	ea f7       	brpl	.-6      	; 0x3390 <LCD_SetPixel+0x50>
    3396:	28 2b       	or	r18, r24
    3398:	0c c0       	rjmp	.+24     	; 0x33b2 <LCD_SetPixel+0x72>
    339a:	45 e0       	ldi	r20, 0x05	; 5
    339c:	50 e0       	ldi	r21, 0x00	; 0
    339e:	42 1b       	sub	r20, r18
    33a0:	53 0b       	sbc	r21, r19
    33a2:	21 e0       	ldi	r18, 0x01	; 1
    33a4:	30 e0       	ldi	r19, 0x00	; 0
    33a6:	01 c0       	rjmp	.+2      	; 0x33aa <LCD_SetPixel+0x6a>
    33a8:	22 0f       	add	r18, r18
    33aa:	4a 95       	dec	r20
    33ac:	ea f7       	brpl	.-6      	; 0x33a8 <LCD_SetPixel+0x68>
    33ae:	20 95       	com	r18
    33b0:	28 23       	and	r18, r24
    33b2:	82 2f       	mov	r24, r18
    33b4:	0f 90       	pop	r0
    33b6:	df 91       	pop	r29
    33b8:	cf 91       	pop	r28
    33ba:	1f 91       	pop	r17
    33bc:	0c 94 d4 18 	jmp	0x31a8	; 0x31a8 <LCD_WRiteDisplayData>

000033c0 <GLCD_GraphicGoTo>:
    33c0:	26 2f       	mov	r18, r22
    33c2:	66 e0       	ldi	r22, 0x06	; 6
    33c4:	0e 94 cc 1c 	call	0x3998	; 0x3998 <__udivmodqi4>
    33c8:	90 e0       	ldi	r25, 0x00	; 0
    33ca:	80 5c       	subi	r24, 0xC0	; 192
    33cc:	9e 4f       	sbci	r25, 0xFE	; 254
    33ce:	38 e2       	ldi	r19, 0x28	; 40
    33d0:	23 9f       	mul	r18, r19
    33d2:	80 0d       	add	r24, r0
    33d4:	91 1d       	adc	r25, r1
    33d6:	11 24       	eor	r1, r1
    33d8:	0c 94 b8 18 	jmp	0x3170	; 0x3170 <GLCD_SetAddressPointer>

000033dc <GLCD_Bitmap>:
    33dc:	cf 92       	push	r12
    33de:	df 92       	push	r13
    33e0:	ef 92       	push	r14
    33e2:	ff 92       	push	r15
    33e4:	0f 93       	push	r16
    33e6:	1f 93       	push	r17
    33e8:	cf 93       	push	r28
    33ea:	df 93       	push	r29
    33ec:	58 2f       	mov	r21, r24
    33ee:	39 2f       	mov	r19, r25
    33f0:	d6 2e       	mov	r13, r22
    33f2:	82 2f       	mov	r24, r18
    33f4:	66 e0       	ldi	r22, 0x06	; 6
    33f6:	0e 94 cc 1c 	call	0x3998	; 0x3998 <__udivmodqi4>
    33fa:	c8 2e       	mov	r12, r24
    33fc:	c5 2f       	mov	r28, r21
    33fe:	d3 2f       	mov	r29, r19
    3400:	04 0f       	add	r16, r20
    3402:	14 2f       	mov	r17, r20
    3404:	10 17       	cp	r17, r16
    3406:	a9 f0       	breq	.+42     	; 0x3432 <GLCD_Bitmap+0x56>
    3408:	61 2f       	mov	r22, r17
    340a:	8d 2d       	mov	r24, r13
    340c:	0e 94 e0 19 	call	0x33c0	; 0x33c0 <GLCD_GraphicGoTo>
    3410:	e1 2c       	mov	r14, r1
    3412:	f1 2c       	mov	r15, r1
    3414:	ec 14       	cp	r14, r12
    3416:	50 f4       	brcc	.+20     	; 0x342c <GLCD_Bitmap+0x50>
    3418:	f7 01       	movw	r30, r14
    341a:	ec 0f       	add	r30, r28
    341c:	fd 1f       	adc	r31, r29
    341e:	84 91       	lpm	r24, Z
    3420:	0e 94 d4 18 	call	0x31a8	; 0x31a8 <LCD_WRiteDisplayData>
    3424:	8f ef       	ldi	r24, 0xFF	; 255
    3426:	e8 1a       	sub	r14, r24
    3428:	f8 0a       	sbc	r15, r24
    342a:	f4 cf       	rjmp	.-24     	; 0x3414 <GLCD_Bitmap+0x38>
    342c:	1f 5f       	subi	r17, 0xFF	; 255
    342e:	a8 96       	adiw	r28, 0x28	; 40
    3430:	e9 cf       	rjmp	.-46     	; 0x3404 <GLCD_Bitmap+0x28>
    3432:	df 91       	pop	r29
    3434:	cf 91       	pop	r28
    3436:	1f 91       	pop	r17
    3438:	0f 91       	pop	r16
    343a:	ff 90       	pop	r15
    343c:	ef 90       	pop	r14
    343e:	df 90       	pop	r13
    3440:	cf 90       	pop	r12
    3442:	08 95       	ret

00003444 <LCD_Initalize>:
    3444:	0e 94 47 18 	call	0x308e	; 0x308e <LCD_InitalizeInterface>
    3448:	e5 e6       	ldi	r30, 0x65	; 101
    344a:	f0 e0       	ldi	r31, 0x00	; 0
    344c:	80 81       	ld	r24, Z
    344e:	8d 7f       	andi	r24, 0xFD	; 253
    3450:	80 83       	st	Z, r24
    3452:	8f ef       	ldi	r24, 0xFF	; 255
    3454:	91 e1       	ldi	r25, 0x11	; 17
    3456:	01 97       	sbiw	r24, 0x01	; 1
    3458:	f1 f7       	brne	.-4      	; 0x3456 <LCD_Initalize+0x12>
    345a:	00 c0       	rjmp	.+0      	; 0x345c <LCD_Initalize+0x18>
    345c:	00 00       	nop
    345e:	80 81       	ld	r24, Z
    3460:	82 60       	ori	r24, 0x02	; 2
    3462:	80 83       	st	Z, r24
    3464:	80 e4       	ldi	r24, 0x40	; 64
    3466:	0e 94 7e 18 	call	0x30fc	; 0x30fc <LCD_WRiteData>
    346a:	81 e0       	ldi	r24, 0x01	; 1
    346c:	0e 94 7e 18 	call	0x30fc	; 0x30fc <LCD_WRiteData>
    3470:	82 e4       	ldi	r24, 0x42	; 66
    3472:	0e 94 65 18 	call	0x30ca	; 0x30ca <LCD_WRiteCommand>
    3476:	88 e2       	ldi	r24, 0x28	; 40
    3478:	0e 94 7e 18 	call	0x30fc	; 0x30fc <LCD_WRiteData>
    347c:	80 e0       	ldi	r24, 0x00	; 0
    347e:	0e 94 7e 18 	call	0x30fc	; 0x30fc <LCD_WRiteData>
    3482:	83 e4       	ldi	r24, 0x43	; 67
    3484:	0e 94 65 18 	call	0x30ca	; 0x30ca <LCD_WRiteCommand>
    3488:	80 e0       	ldi	r24, 0x00	; 0
    348a:	0e 94 7e 18 	call	0x30fc	; 0x30fc <LCD_WRiteData>
    348e:	80 e0       	ldi	r24, 0x00	; 0
    3490:	0e 94 7e 18 	call	0x30fc	; 0x30fc <LCD_WRiteData>
    3494:	80 e4       	ldi	r24, 0x40	; 64
    3496:	0e 94 65 18 	call	0x30ca	; 0x30ca <LCD_WRiteCommand>
    349a:	88 e2       	ldi	r24, 0x28	; 40
    349c:	0e 94 7e 18 	call	0x30fc	; 0x30fc <LCD_WRiteData>
    34a0:	80 e0       	ldi	r24, 0x00	; 0
    34a2:	0e 94 7e 18 	call	0x30fc	; 0x30fc <LCD_WRiteData>
    34a6:	81 e4       	ldi	r24, 0x41	; 65
    34a8:	0e 94 65 18 	call	0x30ca	; 0x30ca <LCD_WRiteCommand>
    34ac:	82 e0       	ldi	r24, 0x02	; 2
    34ae:	0e 94 7e 18 	call	0x30fc	; 0x30fc <LCD_WRiteData>
    34b2:	80 e0       	ldi	r24, 0x00	; 0
    34b4:	0e 94 7e 18 	call	0x30fc	; 0x30fc <LCD_WRiteData>
    34b8:	82 e2       	ldi	r24, 0x22	; 34
    34ba:	0e 94 65 18 	call	0x30ca	; 0x30ca <LCD_WRiteCommand>
    34be:	8c e9       	ldi	r24, 0x9C	; 156
    34c0:	0e 94 65 18 	call	0x30ca	; 0x30ca <LCD_WRiteCommand>
    34c4:	81 e8       	ldi	r24, 0x81	; 129
    34c6:	0c 94 65 18 	jmp	0x30ca	; 0x30ca <LCD_WRiteCommand>

000034ca <TestWorka>:
    34ca:	0f 93       	push	r16
    34cc:	1f 93       	push	r17
    34ce:	cf 93       	push	r28
    34d0:	df 93       	push	r29
    34d2:	08 2f       	mov	r16, r24
    34d4:	10 e0       	ldi	r17, 0x00	; 0
    34d6:	e8 01       	movw	r28, r16
    34d8:	cc 0f       	add	r28, r28
    34da:	dd 1f       	adc	r29, r29
    34dc:	fe 01       	movw	r30, r28
    34de:	ed 50       	subi	r30, 0x0D	; 13
    34e0:	f7 4f       	sbci	r31, 0xF7	; 247
    34e2:	20 81       	ld	r18, Z
    34e4:	31 81       	ldd	r19, Z+1	; 0x01
    34e6:	2f 5f       	subi	r18, 0xFF	; 255
    34e8:	3f 4f       	sbci	r19, 0xFF	; 255
    34ea:	31 83       	std	Z+1, r19	; 0x01
    34ec:	20 83       	st	Z, r18
    34ee:	2e 31       	cpi	r18, 0x1E	; 30
    34f0:	31 05       	cpc	r19, r1
    34f2:	10 f4       	brcc	.+4      	; 0x34f8 <TestWorka+0x2e>
    34f4:	61 e0       	ldi	r22, 0x01	; 1
    34f6:	6a c0       	rjmp	.+212    	; 0x35cc <TestWorka+0x102>
    34f8:	2c 33       	cpi	r18, 0x3C	; 60
    34fa:	31 05       	cpc	r19, r1
    34fc:	f0 f5       	brcc	.+124    	; 0x357a <TestWorka+0xb0>
    34fe:	62 e0       	ldi	r22, 0x02	; 2
    3500:	0e 94 b7 0d 	call	0x1b6e	; 0x1b6e <VALVE_CONTROL>
    3504:	fe 01       	movw	r30, r28
    3506:	e5 55       	subi	r30, 0x55	; 85
    3508:	f7 4f       	sbci	r31, 0xF7	; 247
    350a:	20 81       	ld	r18, Z
    350c:	31 81       	ldd	r19, Z+1	; 0x01
    350e:	fe 01       	movw	r30, r28
    3510:	e3 50       	subi	r30, 0x03	; 3
    3512:	f7 4f       	sbci	r31, 0xF7	; 247
    3514:	80 81       	ld	r24, Z
    3516:	91 81       	ldd	r25, Z+1	; 0x01
    3518:	82 17       	cp	r24, r18
    351a:	93 07       	cpc	r25, r19
    351c:	14 f4       	brge	.+4      	; 0x3522 <TestWorka+0x58>
    351e:	31 83       	std	Z+1, r19	; 0x01
    3520:	20 83       	st	Z, r18
    3522:	fe 01       	movw	r30, r28
    3524:	e3 50       	subi	r30, 0x03	; 3
    3526:	f7 4f       	sbci	r31, 0xF7	; 247
    3528:	80 81       	ld	r24, Z
    352a:	91 81       	ldd	r25, Z+1	; 0x01
    352c:	fe 01       	movw	r30, r28
    352e:	ec 51       	subi	r30, 0x1C	; 28
    3530:	f7 4f       	sbci	r31, 0xF7	; 247
    3532:	91 83       	std	Z+1, r25	; 0x01
    3534:	80 83       	st	Z, r24
    3536:	ac 01       	movw	r20, r24
    3538:	42 1b       	sub	r20, r18
    353a:	53 0b       	sbc	r21, r19
    353c:	9a 01       	movw	r18, r20
    353e:	fe 01       	movw	r30, r28
    3540:	ea 53       	subi	r30, 0x3A	; 58
    3542:	f7 4f       	sbci	r31, 0xF7	; 247
    3544:	51 83       	std	Z+1, r21	; 0x01
    3546:	40 83       	st	Z, r20
    3548:	cd 50       	subi	r28, 0x0D	; 13
    354a:	d7 4f       	sbci	r29, 0xF7	; 247
    354c:	48 81       	ld	r20, Y
    354e:	59 81       	ldd	r21, Y+1	; 0x01
    3550:	49 32       	cpi	r20, 0x29	; 41
    3552:	51 05       	cpc	r21, r1
    3554:	50 f1       	brcs	.+84     	; 0x35aa <TestWorka+0xe0>
    3556:	84 36       	cpi	r24, 0x64	; 100
    3558:	91 05       	cpc	r25, r1
    355a:	34 f4       	brge	.+12     	; 0x3568 <TestWorka+0x9e>
    355c:	f8 01       	movw	r30, r16
    355e:	e1 52       	subi	r30, 0x21	; 33
    3560:	f7 4f       	sbci	r31, 0xF7	; 247
    3562:	81 e0       	ldi	r24, 0x01	; 1
    3564:	80 83       	st	Z, r24
    3566:	2c c0       	rjmp	.+88     	; 0x35c0 <TestWorka+0xf6>
    3568:	25 30       	cpi	r18, 0x05	; 5
    356a:	31 05       	cpc	r19, r1
    356c:	f4 f0       	brlt	.+60     	; 0x35aa <TestWorka+0xe0>
    356e:	f8 01       	movw	r30, r16
    3570:	e1 52       	subi	r30, 0x21	; 33
    3572:	f7 4f       	sbci	r31, 0xF7	; 247
    3574:	82 e0       	ldi	r24, 0x02	; 2
    3576:	80 83       	st	Z, r24
    3578:	2d c0       	rjmp	.+90     	; 0x35d4 <TestWorka+0x10a>
    357a:	28 37       	cpi	r18, 0x78	; 120
    357c:	31 05       	cpc	r19, r1
    357e:	b8 f4       	brcc	.+46     	; 0x35ae <TestWorka+0xe4>
    3580:	fe 01       	movw	r30, r28
    3582:	e5 55       	subi	r30, 0x55	; 85
    3584:	f7 4f       	sbci	r31, 0xF7	; 247
    3586:	20 81       	ld	r18, Z
    3588:	31 81       	ldd	r19, Z+1	; 0x01
    358a:	fe 01       	movw	r30, r28
    358c:	eb 52       	subi	r30, 0x2B	; 43
    358e:	f7 4f       	sbci	r31, 0xF7	; 247
    3590:	31 83       	std	Z+1, r19	; 0x01
    3592:	20 83       	st	Z, r18
    3594:	fe 01       	movw	r30, r28
    3596:	ea 53       	subi	r30, 0x3A	; 58
    3598:	f7 4f       	sbci	r31, 0xF7	; 247
    359a:	cc 51       	subi	r28, 0x1C	; 28
    359c:	d7 4f       	sbci	r29, 0xF7	; 247
    359e:	88 81       	ld	r24, Y
    35a0:	99 81       	ldd	r25, Y+1	; 0x01
    35a2:	82 1b       	sub	r24, r18
    35a4:	93 0b       	sbc	r25, r19
    35a6:	91 83       	std	Z+1, r25	; 0x01
    35a8:	80 83       	st	Z, r24
    35aa:	81 e0       	ldi	r24, 0x01	; 1
    35ac:	13 c0       	rjmp	.+38     	; 0x35d4 <TestWorka+0x10a>
    35ae:	21 38       	cpi	r18, 0x81	; 129
    35b0:	31 05       	cpc	r19, r1
    35b2:	40 f4       	brcc	.+16     	; 0x35c4 <TestWorka+0xfa>
    35b4:	ca 53       	subi	r28, 0x3A	; 58
    35b6:	d7 4f       	sbci	r29, 0xF7	; 247
    35b8:	88 81       	ld	r24, Y
    35ba:	99 81       	ldd	r25, Y+1	; 0x01
    35bc:	03 97       	sbiw	r24, 0x03	; 3
    35be:	ac f3       	brlt	.-22     	; 0x35aa <TestWorka+0xe0>
    35c0:	82 e0       	ldi	r24, 0x02	; 2
    35c2:	08 c0       	rjmp	.+16     	; 0x35d4 <TestWorka+0x10a>
    35c4:	25 39       	cpi	r18, 0x95	; 149
    35c6:	31 05       	cpc	r19, r1
    35c8:	20 f4       	brcc	.+8      	; 0x35d2 <TestWorka+0x108>
    35ca:	64 e0       	ldi	r22, 0x04	; 4
    35cc:	0e 94 b7 0d 	call	0x1b6e	; 0x1b6e <VALVE_CONTROL>
    35d0:	ec cf       	rjmp	.-40     	; 0x35aa <TestWorka+0xe0>
    35d2:	83 e0       	ldi	r24, 0x03	; 3
    35d4:	df 91       	pop	r29
    35d6:	cf 91       	pop	r28
    35d8:	1f 91       	pop	r17
    35da:	0f 91       	pop	r16
    35dc:	08 95       	ret

000035de <TestZbiornika>:
    35de:	0f 93       	push	r16
    35e0:	1f 93       	push	r17
    35e2:	cf 93       	push	r28
    35e4:	df 93       	push	r29
    35e6:	08 2f       	mov	r16, r24
    35e8:	10 e0       	ldi	r17, 0x00	; 0
    35ea:	e8 01       	movw	r28, r16
    35ec:	cc 0f       	add	r28, r28
    35ee:	dd 1f       	adc	r29, r29
    35f0:	fe 01       	movw	r30, r28
    35f2:	ed 50       	subi	r30, 0x0D	; 13
    35f4:	f7 4f       	sbci	r31, 0xF7	; 247
    35f6:	20 81       	ld	r18, Z
    35f8:	31 81       	ldd	r19, Z+1	; 0x01
    35fa:	2f 5f       	subi	r18, 0xFF	; 255
    35fc:	3f 4f       	sbci	r19, 0xFF	; 255
    35fe:	31 83       	std	Z+1, r19	; 0x01
    3600:	20 83       	st	Z, r18
    3602:	28 32       	cpi	r18, 0x28	; 40
    3604:	31 05       	cpc	r19, r1
    3606:	10 f4       	brcc	.+4      	; 0x360c <TestZbiornika+0x2e>
    3608:	63 e0       	ldi	r22, 0x03	; 3
    360a:	66 c0       	rjmp	.+204    	; 0x36d8 <TestZbiornika+0xfa>
    360c:	20 35       	cpi	r18, 0x50	; 80
    360e:	31 05       	cpc	r19, r1
    3610:	c0 f5       	brcc	.+112    	; 0x3682 <TestZbiornika+0xa4>
    3612:	62 e0       	ldi	r22, 0x02	; 2
    3614:	0e 94 b7 0d 	call	0x1b6e	; 0x1b6e <VALVE_CONTROL>
    3618:	fe 01       	movw	r30, r28
    361a:	e5 55       	subi	r30, 0x55	; 85
    361c:	f7 4f       	sbci	r31, 0xF7	; 247
    361e:	20 81       	ld	r18, Z
    3620:	31 81       	ldd	r19, Z+1	; 0x01
    3622:	fe 01       	movw	r30, r28
    3624:	e3 50       	subi	r30, 0x03	; 3
    3626:	f7 4f       	sbci	r31, 0xF7	; 247
    3628:	80 81       	ld	r24, Z
    362a:	91 81       	ldd	r25, Z+1	; 0x01
    362c:	82 17       	cp	r24, r18
    362e:	93 07       	cpc	r25, r19
    3630:	14 f4       	brge	.+4      	; 0x3636 <TestZbiornika+0x58>
    3632:	31 83       	std	Z+1, r19	; 0x01
    3634:	20 83       	st	Z, r18
    3636:	fe 01       	movw	r30, r28
    3638:	e3 50       	subi	r30, 0x03	; 3
    363a:	f7 4f       	sbci	r31, 0xF7	; 247
    363c:	80 81       	ld	r24, Z
    363e:	91 81       	ldd	r25, Z+1	; 0x01
    3640:	fe 01       	movw	r30, r28
    3642:	ec 51       	subi	r30, 0x1C	; 28
    3644:	f7 4f       	sbci	r31, 0xF7	; 247
    3646:	91 83       	std	Z+1, r25	; 0x01
    3648:	80 83       	st	Z, r24
    364a:	ac 01       	movw	r20, r24
    364c:	42 1b       	sub	r20, r18
    364e:	53 0b       	sbc	r21, r19
    3650:	9a 01       	movw	r18, r20
    3652:	fe 01       	movw	r30, r28
    3654:	ea 53       	subi	r30, 0x3A	; 58
    3656:	f7 4f       	sbci	r31, 0xF7	; 247
    3658:	51 83       	std	Z+1, r21	; 0x01
    365a:	40 83       	st	Z, r20
    365c:	cd 50       	subi	r28, 0x0D	; 13
    365e:	d7 4f       	sbci	r29, 0xF7	; 247
    3660:	48 81       	ld	r20, Y
    3662:	59 81       	ldd	r21, Y+1	; 0x01
    3664:	46 33       	cpi	r20, 0x36	; 54
    3666:	51 05       	cpc	r21, r1
    3668:	28 f1       	brcs	.+74     	; 0x36b4 <TestZbiornika+0xd6>
    366a:	84 36       	cpi	r24, 0x64	; 100
    366c:	91 05       	cpc	r25, r1
    366e:	1c f0       	brlt	.+6      	; 0x3676 <TestZbiornika+0x98>
    3670:	25 30       	cpi	r18, 0x05	; 5
    3672:	31 05       	cpc	r19, r1
    3674:	fc f0       	brlt	.+62     	; 0x36b4 <TestZbiornika+0xd6>
    3676:	f8 01       	movw	r30, r16
    3678:	e1 52       	subi	r30, 0x21	; 33
    367a:	f7 4f       	sbci	r31, 0xF7	; 247
    367c:	81 e0       	ldi	r24, 0x01	; 1
    367e:	80 83       	st	Z, r24
    3680:	25 c0       	rjmp	.+74     	; 0x36cc <TestZbiornika+0xee>
    3682:	20 34       	cpi	r18, 0x40	; 64
    3684:	51 e0       	ldi	r21, 0x01	; 1
    3686:	35 07       	cpc	r19, r21
    3688:	b8 f4       	brcc	.+46     	; 0x36b8 <TestZbiornika+0xda>
    368a:	fe 01       	movw	r30, r28
    368c:	e5 55       	subi	r30, 0x55	; 85
    368e:	f7 4f       	sbci	r31, 0xF7	; 247
    3690:	20 81       	ld	r18, Z
    3692:	31 81       	ldd	r19, Z+1	; 0x01
    3694:	fe 01       	movw	r30, r28
    3696:	eb 52       	subi	r30, 0x2B	; 43
    3698:	f7 4f       	sbci	r31, 0xF7	; 247
    369a:	31 83       	std	Z+1, r19	; 0x01
    369c:	20 83       	st	Z, r18
    369e:	fe 01       	movw	r30, r28
    36a0:	ea 53       	subi	r30, 0x3A	; 58
    36a2:	f7 4f       	sbci	r31, 0xF7	; 247
    36a4:	cc 51       	subi	r28, 0x1C	; 28
    36a6:	d7 4f       	sbci	r29, 0xF7	; 247
    36a8:	88 81       	ld	r24, Y
    36aa:	99 81       	ldd	r25, Y+1	; 0x01
    36ac:	82 1b       	sub	r24, r18
    36ae:	93 0b       	sbc	r25, r19
    36b0:	91 83       	std	Z+1, r25	; 0x01
    36b2:	80 83       	st	Z, r24
    36b4:	81 e0       	ldi	r24, 0x01	; 1
    36b6:	14 c0       	rjmp	.+40     	; 0x36e0 <TestZbiornika+0x102>
    36b8:	29 34       	cpi	r18, 0x49	; 73
    36ba:	91 e0       	ldi	r25, 0x01	; 1
    36bc:	39 07       	cpc	r19, r25
    36be:	40 f4       	brcc	.+16     	; 0x36d0 <TestZbiornika+0xf2>
    36c0:	ca 53       	subi	r28, 0x3A	; 58
    36c2:	d7 4f       	sbci	r29, 0xF7	; 247
    36c4:	88 81       	ld	r24, Y
    36c6:	99 81       	ldd	r25, Y+1	; 0x01
    36c8:	03 97       	sbiw	r24, 0x03	; 3
    36ca:	a4 f3       	brlt	.-24     	; 0x36b4 <TestZbiornika+0xd6>
    36cc:	82 e0       	ldi	r24, 0x02	; 2
    36ce:	08 c0       	rjmp	.+16     	; 0x36e0 <TestZbiornika+0x102>
    36d0:	28 35       	cpi	r18, 0x58	; 88
    36d2:	31 40       	sbci	r19, 0x01	; 1
    36d4:	20 f4       	brcc	.+8      	; 0x36de <TestZbiornika+0x100>
    36d6:	65 e0       	ldi	r22, 0x05	; 5
    36d8:	0e 94 b7 0d 	call	0x1b6e	; 0x1b6e <VALVE_CONTROL>
    36dc:	eb cf       	rjmp	.-42     	; 0x36b4 <TestZbiornika+0xd6>
    36de:	83 e0       	ldi	r24, 0x03	; 3
    36e0:	df 91       	pop	r29
    36e2:	cf 91       	pop	r28
    36e4:	1f 91       	pop	r17
    36e6:	0f 91       	pop	r16
    36e8:	08 95       	ret

000036ea <TestPodcisnieniaWorka>:
    36ea:	df 92       	push	r13
    36ec:	ef 92       	push	r14
    36ee:	ff 92       	push	r15
    36f0:	0f 93       	push	r16
    36f2:	1f 93       	push	r17
    36f4:	cf 93       	push	r28
    36f6:	df 93       	push	r29
    36f8:	d8 2e       	mov	r13, r24
    36fa:	e8 2e       	mov	r14, r24
    36fc:	f1 2c       	mov	r15, r1
    36fe:	e7 01       	movw	r28, r14
    3700:	cc 0f       	add	r28, r28
    3702:	dd 1f       	adc	r29, r29
    3704:	8e 01       	movw	r16, r28
    3706:	0d 50       	subi	r16, 0x0D	; 13
    3708:	17 4f       	sbci	r17, 0xF7	; 247
    370a:	f8 01       	movw	r30, r16
    370c:	20 81       	ld	r18, Z
    370e:	31 81       	ldd	r19, Z+1	; 0x01
    3710:	2f 5f       	subi	r18, 0xFF	; 255
    3712:	3f 4f       	sbci	r19, 0xFF	; 255
    3714:	31 83       	std	Z+1, r19	; 0x01
    3716:	20 83       	st	Z, r18
    3718:	2e 31       	cpi	r18, 0x1E	; 30
    371a:	31 05       	cpc	r19, r1
    371c:	10 f4       	brcc	.+4      	; 0x3722 <TestPodcisnieniaWorka+0x38>
    371e:	63 e0       	ldi	r22, 0x03	; 3
    3720:	66 c0       	rjmp	.+204    	; 0x37ee <TestPodcisnieniaWorka+0x104>
    3722:	26 34       	cpi	r18, 0x46	; 70
    3724:	31 05       	cpc	r19, r1
    3726:	f0 f5       	brcc	.+124    	; 0x37a4 <TestPodcisnieniaWorka+0xba>
    3728:	62 e0       	ldi	r22, 0x02	; 2
    372a:	0e 94 b7 0d 	call	0x1b6e	; 0x1b6e <VALVE_CONTROL>
    372e:	65 e0       	ldi	r22, 0x05	; 5
    3730:	8d 2d       	mov	r24, r13
    3732:	0e 94 b7 0d 	call	0x1b6e	; 0x1b6e <VALVE_CONTROL>
    3736:	f8 01       	movw	r30, r16
    3738:	40 81       	ld	r20, Z
    373a:	51 81       	ldd	r21, Z+1	; 0x01
    373c:	48 32       	cpi	r20, 0x28	; 40
    373e:	51 05       	cpc	r21, r1
    3740:	08 f4       	brcc	.+2      	; 0x3744 <TestPodcisnieniaWorka+0x5a>
    3742:	43 c0       	rjmp	.+134    	; 0x37ca <TestPodcisnieniaWorka+0xe0>
    3744:	fe 01       	movw	r30, r28
    3746:	e5 55       	subi	r30, 0x55	; 85
    3748:	f7 4f       	sbci	r31, 0xF7	; 247
    374a:	20 81       	ld	r18, Z
    374c:	31 81       	ldd	r19, Z+1	; 0x01
    374e:	fe 01       	movw	r30, r28
    3750:	e3 50       	subi	r30, 0x03	; 3
    3752:	f7 4f       	sbci	r31, 0xF7	; 247
    3754:	80 81       	ld	r24, Z
    3756:	91 81       	ldd	r25, Z+1	; 0x01
    3758:	28 17       	cp	r18, r24
    375a:	39 07       	cpc	r19, r25
    375c:	14 f4       	brge	.+4      	; 0x3762 <TestPodcisnieniaWorka+0x78>
    375e:	31 83       	std	Z+1, r19	; 0x01
    3760:	20 83       	st	Z, r18
    3762:	fe 01       	movw	r30, r28
    3764:	e3 50       	subi	r30, 0x03	; 3
    3766:	f7 4f       	sbci	r31, 0xF7	; 247
    3768:	80 81       	ld	r24, Z
    376a:	91 81       	ldd	r25, Z+1	; 0x01
    376c:	fe 01       	movw	r30, r28
    376e:	ec 51       	subi	r30, 0x1C	; 28
    3770:	f7 4f       	sbci	r31, 0xF7	; 247
    3772:	91 83       	std	Z+1, r25	; 0x01
    3774:	80 83       	st	Z, r24
    3776:	bc 01       	movw	r22, r24
    3778:	62 1b       	sub	r22, r18
    377a:	73 0b       	sbc	r23, r19
    377c:	9b 01       	movw	r18, r22
    377e:	ca 53       	subi	r28, 0x3A	; 58
    3780:	d7 4f       	sbci	r29, 0xF7	; 247
    3782:	79 83       	std	Y+1, r23	; 0x01
    3784:	68 83       	st	Y, r22
    3786:	4c 32       	cpi	r20, 0x2C	; 44
    3788:	51 05       	cpc	r21, r1
    378a:	f8 f0       	brcs	.+62     	; 0x37ca <TestPodcisnieniaWorka+0xe0>
    378c:	82 3f       	cpi	r24, 0xF2	; 242
    378e:	9f 4f       	sbci	r25, 0xFF	; 255
    3790:	1c f4       	brge	.+6      	; 0x3798 <TestPodcisnieniaWorka+0xae>
    3792:	2c 3f       	cpi	r18, 0xFC	; 252
    3794:	3f 4f       	sbci	r19, 0xFF	; 255
    3796:	cc f4       	brge	.+50     	; 0x37ca <TestPodcisnieniaWorka+0xe0>
    3798:	f7 01       	movw	r30, r14
    379a:	e1 52       	subi	r30, 0x21	; 33
    379c:	f7 4f       	sbci	r31, 0xF7	; 247
    379e:	81 e0       	ldi	r24, 0x01	; 1
    37a0:	80 83       	st	Z, r24
    37a2:	1f c0       	rjmp	.+62     	; 0x37e2 <TestPodcisnieniaWorka+0xf8>
    37a4:	28 37       	cpi	r18, 0x78	; 120
    37a6:	31 05       	cpc	r19, r1
    37a8:	90 f4       	brcc	.+36     	; 0x37ce <TestPodcisnieniaWorka+0xe4>
    37aa:	fe 01       	movw	r30, r28
    37ac:	ea 53       	subi	r30, 0x3A	; 58
    37ae:	f7 4f       	sbci	r31, 0xF7	; 247
    37b0:	de 01       	movw	r26, r28
    37b2:	ac 51       	subi	r26, 0x1C	; 28
    37b4:	b7 4f       	sbci	r27, 0xF7	; 247
    37b6:	c5 55       	subi	r28, 0x55	; 85
    37b8:	d7 4f       	sbci	r29, 0xF7	; 247
    37ba:	8d 91       	ld	r24, X+
    37bc:	9c 91       	ld	r25, X
    37be:	28 81       	ld	r18, Y
    37c0:	39 81       	ldd	r19, Y+1	; 0x01
    37c2:	82 1b       	sub	r24, r18
    37c4:	93 0b       	sbc	r25, r19
    37c6:	91 83       	std	Z+1, r25	; 0x01
    37c8:	80 83       	st	Z, r24
    37ca:	81 e0       	ldi	r24, 0x01	; 1
    37cc:	15 c0       	rjmp	.+42     	; 0x37f8 <TestPodcisnieniaWorka+0x10e>
    37ce:	21 38       	cpi	r18, 0x81	; 129
    37d0:	31 05       	cpc	r19, r1
    37d2:	48 f4       	brcc	.+18     	; 0x37e6 <TestPodcisnieniaWorka+0xfc>
    37d4:	ca 53       	subi	r28, 0x3A	; 58
    37d6:	d7 4f       	sbci	r29, 0xF7	; 247
    37d8:	88 81       	ld	r24, Y
    37da:	99 81       	ldd	r25, Y+1	; 0x01
    37dc:	8e 3f       	cpi	r24, 0xFE	; 254
    37de:	9f 4f       	sbci	r25, 0xFF	; 255
    37e0:	a4 f7       	brge	.-24     	; 0x37ca <TestPodcisnieniaWorka+0xe0>
    37e2:	82 e0       	ldi	r24, 0x02	; 2
    37e4:	09 c0       	rjmp	.+18     	; 0x37f8 <TestPodcisnieniaWorka+0x10e>
    37e6:	2b 38       	cpi	r18, 0x8B	; 139
    37e8:	31 05       	cpc	r19, r1
    37ea:	28 f4       	brcc	.+10     	; 0x37f6 <TestPodcisnieniaWorka+0x10c>
    37ec:	64 e0       	ldi	r22, 0x04	; 4
    37ee:	8d 2d       	mov	r24, r13
    37f0:	0e 94 b7 0d 	call	0x1b6e	; 0x1b6e <VALVE_CONTROL>
    37f4:	ea cf       	rjmp	.-44     	; 0x37ca <TestPodcisnieniaWorka+0xe0>
    37f6:	83 e0       	ldi	r24, 0x03	; 3
    37f8:	df 91       	pop	r29
    37fa:	cf 91       	pop	r28
    37fc:	1f 91       	pop	r17
    37fe:	0f 91       	pop	r16
    3800:	ff 90       	pop	r15
    3802:	ef 90       	pop	r14
    3804:	df 90       	pop	r13
    3806:	08 95       	ret

00003808 <TestHTR>:
    3808:	cf 93       	push	r28
    380a:	c8 2f       	mov	r28, r24
    380c:	0e 94 b2 09 	call	0x1364	; 0x1364 <DS1W_ReadSerialAndChackCRC>
    3810:	81 30       	cpi	r24, 0x01	; 1
    3812:	29 f4       	brne	.+10     	; 0x381e <TestHTR+0x16>
    3814:	8c 2f       	mov	r24, r28
    3816:	0e 94 fb 09 	call	0x13f6	; 0x13f6 <DS1W_TestHTRWriteAndReadData>
    381a:	81 30       	cpi	r24, 0x01	; 1
    381c:	39 f0       	breq	.+14     	; 0x382c <TestHTR+0x24>
    381e:	ec 2f       	mov	r30, r28
    3820:	f0 e0       	ldi	r31, 0x00	; 0
    3822:	e1 52       	subi	r30, 0x21	; 33
    3824:	f7 4f       	sbci	r31, 0xF7	; 247
    3826:	80 83       	st	Z, r24
    3828:	82 e0       	ldi	r24, 0x02	; 2
    382a:	01 c0       	rjmp	.+2      	; 0x382e <TestHTR+0x26>
    382c:	83 e0       	ldi	r24, 0x03	; 3
    382e:	cf 91       	pop	r28
    3830:	08 95       	ret

00003832 <ResetZmiennych>:
    3832:	cf 93       	push	r28
    3834:	df 93       	push	r29
    3836:	c8 2f       	mov	r28, r24
    3838:	d0 e0       	ldi	r29, 0x00	; 0
    383a:	9e 01       	movw	r18, r28
    383c:	22 0f       	add	r18, r18
    383e:	33 1f       	adc	r19, r19
    3840:	f9 01       	movw	r30, r18
    3842:	ed 50       	subi	r30, 0x0D	; 13
    3844:	f7 4f       	sbci	r31, 0xF7	; 247
    3846:	11 82       	std	Z+1, r1	; 0x01
    3848:	10 82       	st	Z, r1
    384a:	f9 01       	movw	r30, r18
    384c:	ea 53       	subi	r30, 0x3A	; 58
    384e:	f7 4f       	sbci	r31, 0xF7	; 247
    3850:	11 82       	std	Z+1, r1	; 0x01
    3852:	10 82       	st	Z, r1
    3854:	f9 01       	movw	r30, r18
    3856:	e3 50       	subi	r30, 0x03	; 3
    3858:	f7 4f       	sbci	r31, 0xF7	; 247
    385a:	11 82       	std	Z+1, r1	; 0x01
    385c:	10 82       	st	Z, r1
    385e:	f9 01       	movw	r30, r18
    3860:	ec 51       	subi	r30, 0x1C	; 28
    3862:	f7 4f       	sbci	r31, 0xF7	; 247
    3864:	11 82       	std	Z+1, r1	; 0x01
    3866:	10 82       	st	Z, r1
    3868:	f9 01       	movw	r30, r18
    386a:	eb 52       	subi	r30, 0x2B	; 43
    386c:	f7 4f       	sbci	r31, 0xF7	; 247
    386e:	11 82       	std	Z+1, r1	; 0x01
    3870:	10 82       	st	Z, r1
    3872:	0e 94 2c 0d 	call	0x1a58	; 0x1a58 <LED_STATUS_OFF>
    3876:	c1 52       	subi	r28, 0x21	; 33
    3878:	d7 4f       	sbci	r29, 0xF7	; 247
    387a:	18 82       	st	Y, r1
    387c:	df 91       	pop	r29
    387e:	cf 91       	pop	r28
    3880:	08 95       	ret

00003882 <StartTesting>:
    3882:	cf 92       	push	r12
    3884:	df 92       	push	r13
    3886:	ef 92       	push	r14
    3888:	ff 92       	push	r15
    388a:	0f 93       	push	r16
    388c:	1f 93       	push	r17
    388e:	cf 93       	push	r28
    3890:	df 93       	push	r29
    3892:	1f 92       	push	r1
    3894:	cd b7       	in	r28, 0x3d	; 61
    3896:	de b7       	in	r29, 0x3e	; 62
    3898:	e8 2e       	mov	r14, r24
    389a:	08 2f       	mov	r16, r24
    389c:	10 e0       	ldi	r17, 0x00	; 0
    389e:	c8 01       	movw	r24, r16
    38a0:	82 51       	subi	r24, 0x12	; 18
    38a2:	97 4f       	sbci	r25, 0xF7	; 247
    38a4:	6c 01       	movw	r12, r24
    38a6:	fc 01       	movw	r30, r24
    38a8:	f0 80       	ld	r15, Z
    38aa:	f1 10       	cpse	r15, r1
    38ac:	0b c0       	rjmp	.+22     	; 0x38c4 <StartTesting+0x42>
    38ae:	8e 2d       	mov	r24, r14
    38b0:	0e 94 19 1c 	call	0x3832	; 0x3832 <ResetZmiennych>
    38b4:	f8 01       	movw	r30, r16
    38b6:	e0 53       	subi	r30, 0x30	; 48
    38b8:	f7 4f       	sbci	r31, 0xF7	; 247
    38ba:	84 e0       	ldi	r24, 0x04	; 4
    38bc:	80 83       	st	Z, r24
    38be:	ff 24       	eor	r15, r15
    38c0:	f3 94       	inc	r15
    38c2:	5c c0       	rjmp	.+184    	; 0x397c <StartTesting+0xfa>
    38c4:	f1 e0       	ldi	r31, 0x01	; 1
    38c6:	ff 12       	cpse	r15, r31
    38c8:	46 c0       	rjmp	.+140    	; 0x3956 <StartTesting+0xd4>
    38ca:	00 53       	subi	r16, 0x30	; 48
    38cc:	17 4f       	sbci	r17, 0xF7	; 247
    38ce:	f8 01       	movw	r30, r16
    38d0:	80 81       	ld	r24, Z
    38d2:	84 30       	cpi	r24, 0x04	; 4
    38d4:	81 f4       	brne	.+32     	; 0x38f6 <StartTesting+0x74>
    38d6:	8e 2d       	mov	r24, r14
    38d8:	0e 94 04 1c 	call	0x3808	; 0x3808 <TestHTR>
    38dc:	83 30       	cpi	r24, 0x03	; 3
    38de:	31 f4       	brne	.+12     	; 0x38ec <StartTesting+0x6a>
    38e0:	8e 2d       	mov	r24, r14
    38e2:	0e 94 19 1c 	call	0x3832	; 0x3832 <ResetZmiennych>
    38e6:	f8 01       	movw	r30, r16
    38e8:	f0 82       	st	Z, r15
    38ea:	48 c0       	rjmp	.+144    	; 0x397c <StartTesting+0xfa>
    38ec:	82 30       	cpi	r24, 0x02	; 2
    38ee:	81 f5       	brne	.+96     	; 0x3950 <StartTesting+0xce>
    38f0:	72 e0       	ldi	r23, 0x02	; 2
    38f2:	f7 2e       	mov	r15, r23
    38f4:	43 c0       	rjmp	.+134    	; 0x397c <StartTesting+0xfa>
    38f6:	81 30       	cpi	r24, 0x01	; 1
    38f8:	61 f4       	brne	.+24     	; 0x3912 <StartTesting+0x90>
    38fa:	8e 2d       	mov	r24, r14
    38fc:	0e 94 65 1a 	call	0x34ca	; 0x34ca <TestWorka>
    3900:	83 30       	cpi	r24, 0x03	; 3
    3902:	a1 f7       	brne	.-24     	; 0x38ec <StartTesting+0x6a>
    3904:	8e 2d       	mov	r24, r14
    3906:	0e 94 19 1c 	call	0x3832	; 0x3832 <ResetZmiennych>
    390a:	82 e0       	ldi	r24, 0x02	; 2
    390c:	f8 01       	movw	r30, r16
    390e:	80 83       	st	Z, r24
    3910:	35 c0       	rjmp	.+106    	; 0x397c <StartTesting+0xfa>
    3912:	82 30       	cpi	r24, 0x02	; 2
    3914:	89 f4       	brne	.+34     	; 0x3938 <StartTesting+0xb6>
    3916:	8e 2d       	mov	r24, r14
    3918:	0e 94 ef 1a 	call	0x35de	; 0x35de <TestZbiornika>
    391c:	98 2f       	mov	r25, r24
    391e:	83 30       	cpi	r24, 0x03	; 3
    3920:	41 f4       	brne	.+16     	; 0x3932 <StartTesting+0xb0>
    3922:	8e 2d       	mov	r24, r14
    3924:	99 83       	std	Y+1, r25	; 0x01
    3926:	0e 94 19 1c 	call	0x3832	; 0x3832 <ResetZmiennych>
    392a:	99 81       	ldd	r25, Y+1	; 0x01
    392c:	f8 01       	movw	r30, r16
    392e:	90 83       	st	Z, r25
    3930:	25 c0       	rjmp	.+74     	; 0x397c <StartTesting+0xfa>
    3932:	82 30       	cpi	r24, 0x02	; 2
    3934:	69 f4       	brne	.+26     	; 0x3950 <StartTesting+0xce>
    3936:	dc cf       	rjmp	.-72     	; 0x38f0 <StartTesting+0x6e>
    3938:	83 30       	cpi	r24, 0x03	; 3
    393a:	f1 f4       	brne	.+60     	; 0x3978 <StartTesting+0xf6>
    393c:	8e 2d       	mov	r24, r14
    393e:	0e 94 75 1b 	call	0x36ea	; 0x36ea <TestPodcisnieniaWorka>
    3942:	83 30       	cpi	r24, 0x03	; 3
    3944:	99 f6       	brne	.-90     	; 0x38ec <StartTesting+0x6a>
    3946:	f8 01       	movw	r30, r16
    3948:	10 82       	st	Z, r1
    394a:	63 e0       	ldi	r22, 0x03	; 3
    394c:	f6 2e       	mov	r15, r22
    394e:	16 c0       	rjmp	.+44     	; 0x397c <StartTesting+0xfa>
    3950:	f6 01       	movw	r30, r12
    3952:	f0 80       	ld	r15, Z
    3954:	13 c0       	rjmp	.+38     	; 0x397c <StartTesting+0xfa>
    3956:	f3 e0       	ldi	r31, 0x03	; 3
    3958:	ff 12       	cpse	r15, r31
    395a:	02 c0       	rjmp	.+4      	; 0x3960 <StartTesting+0xde>
    395c:	61 e0       	ldi	r22, 0x01	; 1
    395e:	04 c0       	rjmp	.+8      	; 0x3968 <StartTesting+0xe6>
    3960:	82 e0       	ldi	r24, 0x02	; 2
    3962:	f8 12       	cpse	r15, r24
    3964:	09 c0       	rjmp	.+18     	; 0x3978 <StartTesting+0xf6>
    3966:	60 e0       	ldi	r22, 0x00	; 0
    3968:	8e 2d       	mov	r24, r14
    396a:	0e 94 f8 0c 	call	0x19f0	; 0x19f0 <LED_STATUS_ON>
    396e:	64 e0       	ldi	r22, 0x04	; 4
    3970:	8e 2d       	mov	r24, r14
    3972:	0e 94 b7 0d 	call	0x1b6e	; 0x1b6e <VALVE_CONTROL>
    3976:	02 c0       	rjmp	.+4      	; 0x397c <StartTesting+0xfa>
    3978:	54 e0       	ldi	r21, 0x04	; 4
    397a:	f5 2e       	mov	r15, r21
    397c:	8f 2d       	mov	r24, r15
    397e:	0f 90       	pop	r0
    3980:	df 91       	pop	r29
    3982:	cf 91       	pop	r28
    3984:	1f 91       	pop	r17
    3986:	0f 91       	pop	r16
    3988:	ff 90       	pop	r15
    398a:	ef 90       	pop	r14
    398c:	df 90       	pop	r13
    398e:	cf 90       	pop	r12
    3990:	08 95       	ret

00003992 <GetDifPressure>:
    3992:	86 1b       	sub	r24, r22
    3994:	97 0b       	sbc	r25, r23
    3996:	08 95       	ret

00003998 <__udivmodqi4>:
    3998:	99 1b       	sub	r25, r25
    399a:	79 e0       	ldi	r23, 0x09	; 9
    399c:	04 c0       	rjmp	.+8      	; 0x39a6 <__udivmodqi4_ep>

0000399e <__udivmodqi4_loop>:
    399e:	99 1f       	adc	r25, r25
    39a0:	96 17       	cp	r25, r22
    39a2:	08 f0       	brcs	.+2      	; 0x39a6 <__udivmodqi4_ep>
    39a4:	96 1b       	sub	r25, r22

000039a6 <__udivmodqi4_ep>:
    39a6:	88 1f       	adc	r24, r24
    39a8:	7a 95       	dec	r23
    39aa:	c9 f7       	brne	.-14     	; 0x399e <__udivmodqi4_loop>
    39ac:	80 95       	com	r24
    39ae:	08 95       	ret

000039b0 <__udivmodsi4>:
    39b0:	a1 e2       	ldi	r26, 0x21	; 33
    39b2:	1a 2e       	mov	r1, r26
    39b4:	aa 1b       	sub	r26, r26
    39b6:	bb 1b       	sub	r27, r27
    39b8:	fd 01       	movw	r30, r26
    39ba:	0d c0       	rjmp	.+26     	; 0x39d6 <__udivmodsi4_ep>

000039bc <__udivmodsi4_loop>:
    39bc:	aa 1f       	adc	r26, r26
    39be:	bb 1f       	adc	r27, r27
    39c0:	ee 1f       	adc	r30, r30
    39c2:	ff 1f       	adc	r31, r31
    39c4:	a2 17       	cp	r26, r18
    39c6:	b3 07       	cpc	r27, r19
    39c8:	e4 07       	cpc	r30, r20
    39ca:	f5 07       	cpc	r31, r21
    39cc:	20 f0       	brcs	.+8      	; 0x39d6 <__udivmodsi4_ep>
    39ce:	a2 1b       	sub	r26, r18
    39d0:	b3 0b       	sbc	r27, r19
    39d2:	e4 0b       	sbc	r30, r20
    39d4:	f5 0b       	sbc	r31, r21

000039d6 <__udivmodsi4_ep>:
    39d6:	66 1f       	adc	r22, r22
    39d8:	77 1f       	adc	r23, r23
    39da:	88 1f       	adc	r24, r24
    39dc:	99 1f       	adc	r25, r25
    39de:	1a 94       	dec	r1
    39e0:	69 f7       	brne	.-38     	; 0x39bc <__udivmodsi4_loop>
    39e2:	60 95       	com	r22
    39e4:	70 95       	com	r23
    39e6:	80 95       	com	r24
    39e8:	90 95       	com	r25
    39ea:	9b 01       	movw	r18, r22
    39ec:	ac 01       	movw	r20, r24
    39ee:	bd 01       	movw	r22, r26
    39f0:	cf 01       	movw	r24, r30
    39f2:	08 95       	ret

000039f4 <__tablejump2__>:
    39f4:	ee 0f       	add	r30, r30
    39f6:	ff 1f       	adc	r31, r31

000039f8 <__tablejump__>:
    39f8:	05 90       	lpm	r0, Z+
    39fa:	f4 91       	lpm	r31, Z
    39fc:	e0 2d       	mov	r30, r0
    39fe:	09 94       	ijmp

00003a00 <__umulhisi3>:
    3a00:	a2 9f       	mul	r26, r18
    3a02:	b0 01       	movw	r22, r0
    3a04:	b3 9f       	mul	r27, r19
    3a06:	c0 01       	movw	r24, r0
    3a08:	a3 9f       	mul	r26, r19
    3a0a:	70 0d       	add	r23, r0
    3a0c:	81 1d       	adc	r24, r1
    3a0e:	11 24       	eor	r1, r1
    3a10:	91 1d       	adc	r25, r1
    3a12:	b2 9f       	mul	r27, r18
    3a14:	70 0d       	add	r23, r0
    3a16:	81 1d       	adc	r24, r1
    3a18:	11 24       	eor	r1, r1
    3a1a:	91 1d       	adc	r25, r1
    3a1c:	08 95       	ret

00003a1e <__muluhisi3>:
    3a1e:	0e 94 00 1d 	call	0x3a00	; 0x3a00 <__umulhisi3>
    3a22:	a5 9f       	mul	r26, r21
    3a24:	90 0d       	add	r25, r0
    3a26:	b4 9f       	mul	r27, r20
    3a28:	90 0d       	add	r25, r0
    3a2a:	a4 9f       	mul	r26, r20
    3a2c:	80 0d       	add	r24, r0
    3a2e:	91 1d       	adc	r25, r1
    3a30:	11 24       	eor	r1, r1
    3a32:	08 95       	ret

00003a34 <__subsf3>:
    3a34:	50 58       	subi	r21, 0x80	; 128

00003a36 <__addsf3>:
    3a36:	bb 27       	eor	r27, r27
    3a38:	aa 27       	eor	r26, r26
    3a3a:	0e d0       	rcall	.+28     	; 0x3a58 <__addsf3x>
    3a3c:	75 c1       	rjmp	.+746    	; 0x3d28 <__fp_round>
    3a3e:	66 d1       	rcall	.+716    	; 0x3d0c <__fp_pscA>
    3a40:	30 f0       	brcs	.+12     	; 0x3a4e <__addsf3+0x18>
    3a42:	6b d1       	rcall	.+726    	; 0x3d1a <__fp_pscB>
    3a44:	20 f0       	brcs	.+8      	; 0x3a4e <__addsf3+0x18>
    3a46:	31 f4       	brne	.+12     	; 0x3a54 <__addsf3+0x1e>
    3a48:	9f 3f       	cpi	r25, 0xFF	; 255
    3a4a:	11 f4       	brne	.+4      	; 0x3a50 <__addsf3+0x1a>
    3a4c:	1e f4       	brtc	.+6      	; 0x3a54 <__addsf3+0x1e>
    3a4e:	5b c1       	rjmp	.+694    	; 0x3d06 <__fp_nan>
    3a50:	0e f4       	brtc	.+2      	; 0x3a54 <__addsf3+0x1e>
    3a52:	e0 95       	com	r30
    3a54:	e7 fb       	bst	r30, 7
    3a56:	51 c1       	rjmp	.+674    	; 0x3cfa <__fp_inf>

00003a58 <__addsf3x>:
    3a58:	e9 2f       	mov	r30, r25
    3a5a:	77 d1       	rcall	.+750    	; 0x3d4a <__fp_split3>
    3a5c:	80 f3       	brcs	.-32     	; 0x3a3e <__addsf3+0x8>
    3a5e:	ba 17       	cp	r27, r26
    3a60:	62 07       	cpc	r22, r18
    3a62:	73 07       	cpc	r23, r19
    3a64:	84 07       	cpc	r24, r20
    3a66:	95 07       	cpc	r25, r21
    3a68:	18 f0       	brcs	.+6      	; 0x3a70 <__addsf3x+0x18>
    3a6a:	71 f4       	brne	.+28     	; 0x3a88 <__addsf3x+0x30>
    3a6c:	9e f5       	brtc	.+102    	; 0x3ad4 <__addsf3x+0x7c>
    3a6e:	8f c1       	rjmp	.+798    	; 0x3d8e <__fp_zero>
    3a70:	0e f4       	brtc	.+2      	; 0x3a74 <__addsf3x+0x1c>
    3a72:	e0 95       	com	r30
    3a74:	0b 2e       	mov	r0, r27
    3a76:	ba 2f       	mov	r27, r26
    3a78:	a0 2d       	mov	r26, r0
    3a7a:	0b 01       	movw	r0, r22
    3a7c:	b9 01       	movw	r22, r18
    3a7e:	90 01       	movw	r18, r0
    3a80:	0c 01       	movw	r0, r24
    3a82:	ca 01       	movw	r24, r20
    3a84:	a0 01       	movw	r20, r0
    3a86:	11 24       	eor	r1, r1
    3a88:	ff 27       	eor	r31, r31
    3a8a:	59 1b       	sub	r21, r25
    3a8c:	99 f0       	breq	.+38     	; 0x3ab4 <__addsf3x+0x5c>
    3a8e:	59 3f       	cpi	r21, 0xF9	; 249
    3a90:	50 f4       	brcc	.+20     	; 0x3aa6 <__addsf3x+0x4e>
    3a92:	50 3e       	cpi	r21, 0xE0	; 224
    3a94:	68 f1       	brcs	.+90     	; 0x3af0 <__addsf3x+0x98>
    3a96:	1a 16       	cp	r1, r26
    3a98:	f0 40       	sbci	r31, 0x00	; 0
    3a9a:	a2 2f       	mov	r26, r18
    3a9c:	23 2f       	mov	r18, r19
    3a9e:	34 2f       	mov	r19, r20
    3aa0:	44 27       	eor	r20, r20
    3aa2:	58 5f       	subi	r21, 0xF8	; 248
    3aa4:	f3 cf       	rjmp	.-26     	; 0x3a8c <__addsf3x+0x34>
    3aa6:	46 95       	lsr	r20
    3aa8:	37 95       	ror	r19
    3aaa:	27 95       	ror	r18
    3aac:	a7 95       	ror	r26
    3aae:	f0 40       	sbci	r31, 0x00	; 0
    3ab0:	53 95       	inc	r21
    3ab2:	c9 f7       	brne	.-14     	; 0x3aa6 <__addsf3x+0x4e>
    3ab4:	7e f4       	brtc	.+30     	; 0x3ad4 <__addsf3x+0x7c>
    3ab6:	1f 16       	cp	r1, r31
    3ab8:	ba 0b       	sbc	r27, r26
    3aba:	62 0b       	sbc	r22, r18
    3abc:	73 0b       	sbc	r23, r19
    3abe:	84 0b       	sbc	r24, r20
    3ac0:	ba f0       	brmi	.+46     	; 0x3af0 <__addsf3x+0x98>
    3ac2:	91 50       	subi	r25, 0x01	; 1
    3ac4:	a1 f0       	breq	.+40     	; 0x3aee <__addsf3x+0x96>
    3ac6:	ff 0f       	add	r31, r31
    3ac8:	bb 1f       	adc	r27, r27
    3aca:	66 1f       	adc	r22, r22
    3acc:	77 1f       	adc	r23, r23
    3ace:	88 1f       	adc	r24, r24
    3ad0:	c2 f7       	brpl	.-16     	; 0x3ac2 <__addsf3x+0x6a>
    3ad2:	0e c0       	rjmp	.+28     	; 0x3af0 <__addsf3x+0x98>
    3ad4:	ba 0f       	add	r27, r26
    3ad6:	62 1f       	adc	r22, r18
    3ad8:	73 1f       	adc	r23, r19
    3ada:	84 1f       	adc	r24, r20
    3adc:	48 f4       	brcc	.+18     	; 0x3af0 <__addsf3x+0x98>
    3ade:	87 95       	ror	r24
    3ae0:	77 95       	ror	r23
    3ae2:	67 95       	ror	r22
    3ae4:	b7 95       	ror	r27
    3ae6:	f7 95       	ror	r31
    3ae8:	9e 3f       	cpi	r25, 0xFE	; 254
    3aea:	08 f0       	brcs	.+2      	; 0x3aee <__addsf3x+0x96>
    3aec:	b3 cf       	rjmp	.-154    	; 0x3a54 <__addsf3+0x1e>
    3aee:	93 95       	inc	r25
    3af0:	88 0f       	add	r24, r24
    3af2:	08 f0       	brcs	.+2      	; 0x3af6 <__addsf3x+0x9e>
    3af4:	99 27       	eor	r25, r25
    3af6:	ee 0f       	add	r30, r30
    3af8:	97 95       	ror	r25
    3afa:	87 95       	ror	r24
    3afc:	08 95       	ret

00003afe <__cmpsf2>:
    3afe:	d9 d0       	rcall	.+434    	; 0x3cb2 <__fp_cmp>
    3b00:	08 f4       	brcc	.+2      	; 0x3b04 <__cmpsf2+0x6>
    3b02:	81 e0       	ldi	r24, 0x01	; 1
    3b04:	08 95       	ret

00003b06 <__divsf3>:
    3b06:	0c d0       	rcall	.+24     	; 0x3b20 <__divsf3x>
    3b08:	0f c1       	rjmp	.+542    	; 0x3d28 <__fp_round>
    3b0a:	07 d1       	rcall	.+526    	; 0x3d1a <__fp_pscB>
    3b0c:	40 f0       	brcs	.+16     	; 0x3b1e <__divsf3+0x18>
    3b0e:	fe d0       	rcall	.+508    	; 0x3d0c <__fp_pscA>
    3b10:	30 f0       	brcs	.+12     	; 0x3b1e <__divsf3+0x18>
    3b12:	21 f4       	brne	.+8      	; 0x3b1c <__divsf3+0x16>
    3b14:	5f 3f       	cpi	r21, 0xFF	; 255
    3b16:	19 f0       	breq	.+6      	; 0x3b1e <__divsf3+0x18>
    3b18:	f0 c0       	rjmp	.+480    	; 0x3cfa <__fp_inf>
    3b1a:	51 11       	cpse	r21, r1
    3b1c:	39 c1       	rjmp	.+626    	; 0x3d90 <__fp_szero>
    3b1e:	f3 c0       	rjmp	.+486    	; 0x3d06 <__fp_nan>

00003b20 <__divsf3x>:
    3b20:	14 d1       	rcall	.+552    	; 0x3d4a <__fp_split3>
    3b22:	98 f3       	brcs	.-26     	; 0x3b0a <__divsf3+0x4>

00003b24 <__divsf3_pse>:
    3b24:	99 23       	and	r25, r25
    3b26:	c9 f3       	breq	.-14     	; 0x3b1a <__divsf3+0x14>
    3b28:	55 23       	and	r21, r21
    3b2a:	b1 f3       	breq	.-20     	; 0x3b18 <__divsf3+0x12>
    3b2c:	95 1b       	sub	r25, r21
    3b2e:	55 0b       	sbc	r21, r21
    3b30:	bb 27       	eor	r27, r27
    3b32:	aa 27       	eor	r26, r26
    3b34:	62 17       	cp	r22, r18
    3b36:	73 07       	cpc	r23, r19
    3b38:	84 07       	cpc	r24, r20
    3b3a:	38 f0       	brcs	.+14     	; 0x3b4a <__divsf3_pse+0x26>
    3b3c:	9f 5f       	subi	r25, 0xFF	; 255
    3b3e:	5f 4f       	sbci	r21, 0xFF	; 255
    3b40:	22 0f       	add	r18, r18
    3b42:	33 1f       	adc	r19, r19
    3b44:	44 1f       	adc	r20, r20
    3b46:	aa 1f       	adc	r26, r26
    3b48:	a9 f3       	breq	.-22     	; 0x3b34 <__divsf3_pse+0x10>
    3b4a:	33 d0       	rcall	.+102    	; 0x3bb2 <__divsf3_pse+0x8e>
    3b4c:	0e 2e       	mov	r0, r30
    3b4e:	3a f0       	brmi	.+14     	; 0x3b5e <__divsf3_pse+0x3a>
    3b50:	e0 e8       	ldi	r30, 0x80	; 128
    3b52:	30 d0       	rcall	.+96     	; 0x3bb4 <__divsf3_pse+0x90>
    3b54:	91 50       	subi	r25, 0x01	; 1
    3b56:	50 40       	sbci	r21, 0x00	; 0
    3b58:	e6 95       	lsr	r30
    3b5a:	00 1c       	adc	r0, r0
    3b5c:	ca f7       	brpl	.-14     	; 0x3b50 <__divsf3_pse+0x2c>
    3b5e:	29 d0       	rcall	.+82     	; 0x3bb2 <__divsf3_pse+0x8e>
    3b60:	fe 2f       	mov	r31, r30
    3b62:	27 d0       	rcall	.+78     	; 0x3bb2 <__divsf3_pse+0x8e>
    3b64:	66 0f       	add	r22, r22
    3b66:	77 1f       	adc	r23, r23
    3b68:	88 1f       	adc	r24, r24
    3b6a:	bb 1f       	adc	r27, r27
    3b6c:	26 17       	cp	r18, r22
    3b6e:	37 07       	cpc	r19, r23
    3b70:	48 07       	cpc	r20, r24
    3b72:	ab 07       	cpc	r26, r27
    3b74:	b0 e8       	ldi	r27, 0x80	; 128
    3b76:	09 f0       	breq	.+2      	; 0x3b7a <__divsf3_pse+0x56>
    3b78:	bb 0b       	sbc	r27, r27
    3b7a:	80 2d       	mov	r24, r0
    3b7c:	bf 01       	movw	r22, r30
    3b7e:	ff 27       	eor	r31, r31
    3b80:	93 58       	subi	r25, 0x83	; 131
    3b82:	5f 4f       	sbci	r21, 0xFF	; 255
    3b84:	2a f0       	brmi	.+10     	; 0x3b90 <__divsf3_pse+0x6c>
    3b86:	9e 3f       	cpi	r25, 0xFE	; 254
    3b88:	51 05       	cpc	r21, r1
    3b8a:	68 f0       	brcs	.+26     	; 0x3ba6 <__divsf3_pse+0x82>
    3b8c:	b6 c0       	rjmp	.+364    	; 0x3cfa <__fp_inf>
    3b8e:	00 c1       	rjmp	.+512    	; 0x3d90 <__fp_szero>
    3b90:	5f 3f       	cpi	r21, 0xFF	; 255
    3b92:	ec f3       	brlt	.-6      	; 0x3b8e <__divsf3_pse+0x6a>
    3b94:	98 3e       	cpi	r25, 0xE8	; 232
    3b96:	dc f3       	brlt	.-10     	; 0x3b8e <__divsf3_pse+0x6a>
    3b98:	86 95       	lsr	r24
    3b9a:	77 95       	ror	r23
    3b9c:	67 95       	ror	r22
    3b9e:	b7 95       	ror	r27
    3ba0:	f7 95       	ror	r31
    3ba2:	9f 5f       	subi	r25, 0xFF	; 255
    3ba4:	c9 f7       	brne	.-14     	; 0x3b98 <__divsf3_pse+0x74>
    3ba6:	88 0f       	add	r24, r24
    3ba8:	91 1d       	adc	r25, r1
    3baa:	96 95       	lsr	r25
    3bac:	87 95       	ror	r24
    3bae:	97 f9       	bld	r25, 7
    3bb0:	08 95       	ret
    3bb2:	e1 e0       	ldi	r30, 0x01	; 1
    3bb4:	66 0f       	add	r22, r22
    3bb6:	77 1f       	adc	r23, r23
    3bb8:	88 1f       	adc	r24, r24
    3bba:	bb 1f       	adc	r27, r27
    3bbc:	62 17       	cp	r22, r18
    3bbe:	73 07       	cpc	r23, r19
    3bc0:	84 07       	cpc	r24, r20
    3bc2:	ba 07       	cpc	r27, r26
    3bc4:	20 f0       	brcs	.+8      	; 0x3bce <__divsf3_pse+0xaa>
    3bc6:	62 1b       	sub	r22, r18
    3bc8:	73 0b       	sbc	r23, r19
    3bca:	84 0b       	sbc	r24, r20
    3bcc:	ba 0b       	sbc	r27, r26
    3bce:	ee 1f       	adc	r30, r30
    3bd0:	88 f7       	brcc	.-30     	; 0x3bb4 <__divsf3_pse+0x90>
    3bd2:	e0 95       	com	r30
    3bd4:	08 95       	ret

00003bd6 <__fixsfsi>:
    3bd6:	04 d0       	rcall	.+8      	; 0x3be0 <__fixunssfsi>
    3bd8:	68 94       	set
    3bda:	b1 11       	cpse	r27, r1
    3bdc:	d9 c0       	rjmp	.+434    	; 0x3d90 <__fp_szero>
    3bde:	08 95       	ret

00003be0 <__fixunssfsi>:
    3be0:	bc d0       	rcall	.+376    	; 0x3d5a <__fp_splitA>
    3be2:	88 f0       	brcs	.+34     	; 0x3c06 <__fixunssfsi+0x26>
    3be4:	9f 57       	subi	r25, 0x7F	; 127
    3be6:	90 f0       	brcs	.+36     	; 0x3c0c <__fixunssfsi+0x2c>
    3be8:	b9 2f       	mov	r27, r25
    3bea:	99 27       	eor	r25, r25
    3bec:	b7 51       	subi	r27, 0x17	; 23
    3bee:	a0 f0       	brcs	.+40     	; 0x3c18 <__fixunssfsi+0x38>
    3bf0:	d1 f0       	breq	.+52     	; 0x3c26 <__fixunssfsi+0x46>
    3bf2:	66 0f       	add	r22, r22
    3bf4:	77 1f       	adc	r23, r23
    3bf6:	88 1f       	adc	r24, r24
    3bf8:	99 1f       	adc	r25, r25
    3bfa:	1a f0       	brmi	.+6      	; 0x3c02 <__fixunssfsi+0x22>
    3bfc:	ba 95       	dec	r27
    3bfe:	c9 f7       	brne	.-14     	; 0x3bf2 <__fixunssfsi+0x12>
    3c00:	12 c0       	rjmp	.+36     	; 0x3c26 <__fixunssfsi+0x46>
    3c02:	b1 30       	cpi	r27, 0x01	; 1
    3c04:	81 f0       	breq	.+32     	; 0x3c26 <__fixunssfsi+0x46>
    3c06:	c3 d0       	rcall	.+390    	; 0x3d8e <__fp_zero>
    3c08:	b1 e0       	ldi	r27, 0x01	; 1
    3c0a:	08 95       	ret
    3c0c:	c0 c0       	rjmp	.+384    	; 0x3d8e <__fp_zero>
    3c0e:	67 2f       	mov	r22, r23
    3c10:	78 2f       	mov	r23, r24
    3c12:	88 27       	eor	r24, r24
    3c14:	b8 5f       	subi	r27, 0xF8	; 248
    3c16:	39 f0       	breq	.+14     	; 0x3c26 <__fixunssfsi+0x46>
    3c18:	b9 3f       	cpi	r27, 0xF9	; 249
    3c1a:	cc f3       	brlt	.-14     	; 0x3c0e <__fixunssfsi+0x2e>
    3c1c:	86 95       	lsr	r24
    3c1e:	77 95       	ror	r23
    3c20:	67 95       	ror	r22
    3c22:	b3 95       	inc	r27
    3c24:	d9 f7       	brne	.-10     	; 0x3c1c <__fixunssfsi+0x3c>
    3c26:	3e f4       	brtc	.+14     	; 0x3c36 <__fixunssfsi+0x56>
    3c28:	90 95       	com	r25
    3c2a:	80 95       	com	r24
    3c2c:	70 95       	com	r23
    3c2e:	61 95       	neg	r22
    3c30:	7f 4f       	sbci	r23, 0xFF	; 255
    3c32:	8f 4f       	sbci	r24, 0xFF	; 255
    3c34:	9f 4f       	sbci	r25, 0xFF	; 255
    3c36:	08 95       	ret

00003c38 <__floatunsisf>:
    3c38:	e8 94       	clt
    3c3a:	09 c0       	rjmp	.+18     	; 0x3c4e <__floatsisf+0x12>

00003c3c <__floatsisf>:
    3c3c:	97 fb       	bst	r25, 7
    3c3e:	3e f4       	brtc	.+14     	; 0x3c4e <__floatsisf+0x12>
    3c40:	90 95       	com	r25
    3c42:	80 95       	com	r24
    3c44:	70 95       	com	r23
    3c46:	61 95       	neg	r22
    3c48:	7f 4f       	sbci	r23, 0xFF	; 255
    3c4a:	8f 4f       	sbci	r24, 0xFF	; 255
    3c4c:	9f 4f       	sbci	r25, 0xFF	; 255
    3c4e:	99 23       	and	r25, r25
    3c50:	a9 f0       	breq	.+42     	; 0x3c7c <__floatsisf+0x40>
    3c52:	f9 2f       	mov	r31, r25
    3c54:	96 e9       	ldi	r25, 0x96	; 150
    3c56:	bb 27       	eor	r27, r27
    3c58:	93 95       	inc	r25
    3c5a:	f6 95       	lsr	r31
    3c5c:	87 95       	ror	r24
    3c5e:	77 95       	ror	r23
    3c60:	67 95       	ror	r22
    3c62:	b7 95       	ror	r27
    3c64:	f1 11       	cpse	r31, r1
    3c66:	f8 cf       	rjmp	.-16     	; 0x3c58 <__floatsisf+0x1c>
    3c68:	fa f4       	brpl	.+62     	; 0x3ca8 <__floatsisf+0x6c>
    3c6a:	bb 0f       	add	r27, r27
    3c6c:	11 f4       	brne	.+4      	; 0x3c72 <__floatsisf+0x36>
    3c6e:	60 ff       	sbrs	r22, 0
    3c70:	1b c0       	rjmp	.+54     	; 0x3ca8 <__floatsisf+0x6c>
    3c72:	6f 5f       	subi	r22, 0xFF	; 255
    3c74:	7f 4f       	sbci	r23, 0xFF	; 255
    3c76:	8f 4f       	sbci	r24, 0xFF	; 255
    3c78:	9f 4f       	sbci	r25, 0xFF	; 255
    3c7a:	16 c0       	rjmp	.+44     	; 0x3ca8 <__floatsisf+0x6c>
    3c7c:	88 23       	and	r24, r24
    3c7e:	11 f0       	breq	.+4      	; 0x3c84 <__floatsisf+0x48>
    3c80:	96 e9       	ldi	r25, 0x96	; 150
    3c82:	11 c0       	rjmp	.+34     	; 0x3ca6 <__floatsisf+0x6a>
    3c84:	77 23       	and	r23, r23
    3c86:	21 f0       	breq	.+8      	; 0x3c90 <__floatsisf+0x54>
    3c88:	9e e8       	ldi	r25, 0x8E	; 142
    3c8a:	87 2f       	mov	r24, r23
    3c8c:	76 2f       	mov	r23, r22
    3c8e:	05 c0       	rjmp	.+10     	; 0x3c9a <__floatsisf+0x5e>
    3c90:	66 23       	and	r22, r22
    3c92:	71 f0       	breq	.+28     	; 0x3cb0 <__floatsisf+0x74>
    3c94:	96 e8       	ldi	r25, 0x86	; 134
    3c96:	86 2f       	mov	r24, r22
    3c98:	70 e0       	ldi	r23, 0x00	; 0
    3c9a:	60 e0       	ldi	r22, 0x00	; 0
    3c9c:	2a f0       	brmi	.+10     	; 0x3ca8 <__floatsisf+0x6c>
    3c9e:	9a 95       	dec	r25
    3ca0:	66 0f       	add	r22, r22
    3ca2:	77 1f       	adc	r23, r23
    3ca4:	88 1f       	adc	r24, r24
    3ca6:	da f7       	brpl	.-10     	; 0x3c9e <__floatsisf+0x62>
    3ca8:	88 0f       	add	r24, r24
    3caa:	96 95       	lsr	r25
    3cac:	87 95       	ror	r24
    3cae:	97 f9       	bld	r25, 7
    3cb0:	08 95       	ret

00003cb2 <__fp_cmp>:
    3cb2:	99 0f       	add	r25, r25
    3cb4:	00 08       	sbc	r0, r0
    3cb6:	55 0f       	add	r21, r21
    3cb8:	aa 0b       	sbc	r26, r26
    3cba:	e0 e8       	ldi	r30, 0x80	; 128
    3cbc:	fe ef       	ldi	r31, 0xFE	; 254
    3cbe:	16 16       	cp	r1, r22
    3cc0:	17 06       	cpc	r1, r23
    3cc2:	e8 07       	cpc	r30, r24
    3cc4:	f9 07       	cpc	r31, r25
    3cc6:	c0 f0       	brcs	.+48     	; 0x3cf8 <__fp_cmp+0x46>
    3cc8:	12 16       	cp	r1, r18
    3cca:	13 06       	cpc	r1, r19
    3ccc:	e4 07       	cpc	r30, r20
    3cce:	f5 07       	cpc	r31, r21
    3cd0:	98 f0       	brcs	.+38     	; 0x3cf8 <__fp_cmp+0x46>
    3cd2:	62 1b       	sub	r22, r18
    3cd4:	73 0b       	sbc	r23, r19
    3cd6:	84 0b       	sbc	r24, r20
    3cd8:	95 0b       	sbc	r25, r21
    3cda:	39 f4       	brne	.+14     	; 0x3cea <__fp_cmp+0x38>
    3cdc:	0a 26       	eor	r0, r26
    3cde:	61 f0       	breq	.+24     	; 0x3cf8 <__fp_cmp+0x46>
    3ce0:	23 2b       	or	r18, r19
    3ce2:	24 2b       	or	r18, r20
    3ce4:	25 2b       	or	r18, r21
    3ce6:	21 f4       	brne	.+8      	; 0x3cf0 <__fp_cmp+0x3e>
    3ce8:	08 95       	ret
    3cea:	0a 26       	eor	r0, r26
    3cec:	09 f4       	brne	.+2      	; 0x3cf0 <__fp_cmp+0x3e>
    3cee:	a1 40       	sbci	r26, 0x01	; 1
    3cf0:	a6 95       	lsr	r26
    3cf2:	8f ef       	ldi	r24, 0xFF	; 255
    3cf4:	81 1d       	adc	r24, r1
    3cf6:	81 1d       	adc	r24, r1
    3cf8:	08 95       	ret

00003cfa <__fp_inf>:
    3cfa:	97 f9       	bld	r25, 7
    3cfc:	9f 67       	ori	r25, 0x7F	; 127
    3cfe:	80 e8       	ldi	r24, 0x80	; 128
    3d00:	70 e0       	ldi	r23, 0x00	; 0
    3d02:	60 e0       	ldi	r22, 0x00	; 0
    3d04:	08 95       	ret

00003d06 <__fp_nan>:
    3d06:	9f ef       	ldi	r25, 0xFF	; 255
    3d08:	80 ec       	ldi	r24, 0xC0	; 192
    3d0a:	08 95       	ret

00003d0c <__fp_pscA>:
    3d0c:	00 24       	eor	r0, r0
    3d0e:	0a 94       	dec	r0
    3d10:	16 16       	cp	r1, r22
    3d12:	17 06       	cpc	r1, r23
    3d14:	18 06       	cpc	r1, r24
    3d16:	09 06       	cpc	r0, r25
    3d18:	08 95       	ret

00003d1a <__fp_pscB>:
    3d1a:	00 24       	eor	r0, r0
    3d1c:	0a 94       	dec	r0
    3d1e:	12 16       	cp	r1, r18
    3d20:	13 06       	cpc	r1, r19
    3d22:	14 06       	cpc	r1, r20
    3d24:	05 06       	cpc	r0, r21
    3d26:	08 95       	ret

00003d28 <__fp_round>:
    3d28:	09 2e       	mov	r0, r25
    3d2a:	03 94       	inc	r0
    3d2c:	00 0c       	add	r0, r0
    3d2e:	11 f4       	brne	.+4      	; 0x3d34 <__fp_round+0xc>
    3d30:	88 23       	and	r24, r24
    3d32:	52 f0       	brmi	.+20     	; 0x3d48 <__fp_round+0x20>
    3d34:	bb 0f       	add	r27, r27
    3d36:	40 f4       	brcc	.+16     	; 0x3d48 <__fp_round+0x20>
    3d38:	bf 2b       	or	r27, r31
    3d3a:	11 f4       	brne	.+4      	; 0x3d40 <__fp_round+0x18>
    3d3c:	60 ff       	sbrs	r22, 0
    3d3e:	04 c0       	rjmp	.+8      	; 0x3d48 <__fp_round+0x20>
    3d40:	6f 5f       	subi	r22, 0xFF	; 255
    3d42:	7f 4f       	sbci	r23, 0xFF	; 255
    3d44:	8f 4f       	sbci	r24, 0xFF	; 255
    3d46:	9f 4f       	sbci	r25, 0xFF	; 255
    3d48:	08 95       	ret

00003d4a <__fp_split3>:
    3d4a:	57 fd       	sbrc	r21, 7
    3d4c:	90 58       	subi	r25, 0x80	; 128
    3d4e:	44 0f       	add	r20, r20
    3d50:	55 1f       	adc	r21, r21
    3d52:	59 f0       	breq	.+22     	; 0x3d6a <__fp_splitA+0x10>
    3d54:	5f 3f       	cpi	r21, 0xFF	; 255
    3d56:	71 f0       	breq	.+28     	; 0x3d74 <__fp_splitA+0x1a>
    3d58:	47 95       	ror	r20

00003d5a <__fp_splitA>:
    3d5a:	88 0f       	add	r24, r24
    3d5c:	97 fb       	bst	r25, 7
    3d5e:	99 1f       	adc	r25, r25
    3d60:	61 f0       	breq	.+24     	; 0x3d7a <__fp_splitA+0x20>
    3d62:	9f 3f       	cpi	r25, 0xFF	; 255
    3d64:	79 f0       	breq	.+30     	; 0x3d84 <__fp_splitA+0x2a>
    3d66:	87 95       	ror	r24
    3d68:	08 95       	ret
    3d6a:	12 16       	cp	r1, r18
    3d6c:	13 06       	cpc	r1, r19
    3d6e:	14 06       	cpc	r1, r20
    3d70:	55 1f       	adc	r21, r21
    3d72:	f2 cf       	rjmp	.-28     	; 0x3d58 <__fp_split3+0xe>
    3d74:	46 95       	lsr	r20
    3d76:	f1 df       	rcall	.-30     	; 0x3d5a <__fp_splitA>
    3d78:	08 c0       	rjmp	.+16     	; 0x3d8a <__fp_splitA+0x30>
    3d7a:	16 16       	cp	r1, r22
    3d7c:	17 06       	cpc	r1, r23
    3d7e:	18 06       	cpc	r1, r24
    3d80:	99 1f       	adc	r25, r25
    3d82:	f1 cf       	rjmp	.-30     	; 0x3d66 <__fp_splitA+0xc>
    3d84:	86 95       	lsr	r24
    3d86:	71 05       	cpc	r23, r1
    3d88:	61 05       	cpc	r22, r1
    3d8a:	08 94       	sec
    3d8c:	08 95       	ret

00003d8e <__fp_zero>:
    3d8e:	e8 94       	clt

00003d90 <__fp_szero>:
    3d90:	bb 27       	eor	r27, r27
    3d92:	66 27       	eor	r22, r22
    3d94:	77 27       	eor	r23, r23
    3d96:	cb 01       	movw	r24, r22
    3d98:	97 f9       	bld	r25, 7
    3d9a:	08 95       	ret

00003d9c <__mulsf3>:
    3d9c:	0b d0       	rcall	.+22     	; 0x3db4 <__mulsf3x>
    3d9e:	c4 cf       	rjmp	.-120    	; 0x3d28 <__fp_round>
    3da0:	b5 df       	rcall	.-150    	; 0x3d0c <__fp_pscA>
    3da2:	28 f0       	brcs	.+10     	; 0x3dae <__mulsf3+0x12>
    3da4:	ba df       	rcall	.-140    	; 0x3d1a <__fp_pscB>
    3da6:	18 f0       	brcs	.+6      	; 0x3dae <__mulsf3+0x12>
    3da8:	95 23       	and	r25, r21
    3daa:	09 f0       	breq	.+2      	; 0x3dae <__mulsf3+0x12>
    3dac:	a6 cf       	rjmp	.-180    	; 0x3cfa <__fp_inf>
    3dae:	ab cf       	rjmp	.-170    	; 0x3d06 <__fp_nan>
    3db0:	11 24       	eor	r1, r1
    3db2:	ee cf       	rjmp	.-36     	; 0x3d90 <__fp_szero>

00003db4 <__mulsf3x>:
    3db4:	ca df       	rcall	.-108    	; 0x3d4a <__fp_split3>
    3db6:	a0 f3       	brcs	.-24     	; 0x3da0 <__mulsf3+0x4>

00003db8 <__mulsf3_pse>:
    3db8:	95 9f       	mul	r25, r21
    3dba:	d1 f3       	breq	.-12     	; 0x3db0 <__mulsf3+0x14>
    3dbc:	95 0f       	add	r25, r21
    3dbe:	50 e0       	ldi	r21, 0x00	; 0
    3dc0:	55 1f       	adc	r21, r21
    3dc2:	62 9f       	mul	r22, r18
    3dc4:	f0 01       	movw	r30, r0
    3dc6:	72 9f       	mul	r23, r18
    3dc8:	bb 27       	eor	r27, r27
    3dca:	f0 0d       	add	r31, r0
    3dcc:	b1 1d       	adc	r27, r1
    3dce:	63 9f       	mul	r22, r19
    3dd0:	aa 27       	eor	r26, r26
    3dd2:	f0 0d       	add	r31, r0
    3dd4:	b1 1d       	adc	r27, r1
    3dd6:	aa 1f       	adc	r26, r26
    3dd8:	64 9f       	mul	r22, r20
    3dda:	66 27       	eor	r22, r22
    3ddc:	b0 0d       	add	r27, r0
    3dde:	a1 1d       	adc	r26, r1
    3de0:	66 1f       	adc	r22, r22
    3de2:	82 9f       	mul	r24, r18
    3de4:	22 27       	eor	r18, r18
    3de6:	b0 0d       	add	r27, r0
    3de8:	a1 1d       	adc	r26, r1
    3dea:	62 1f       	adc	r22, r18
    3dec:	73 9f       	mul	r23, r19
    3dee:	b0 0d       	add	r27, r0
    3df0:	a1 1d       	adc	r26, r1
    3df2:	62 1f       	adc	r22, r18
    3df4:	83 9f       	mul	r24, r19
    3df6:	a0 0d       	add	r26, r0
    3df8:	61 1d       	adc	r22, r1
    3dfa:	22 1f       	adc	r18, r18
    3dfc:	74 9f       	mul	r23, r20
    3dfe:	33 27       	eor	r19, r19
    3e00:	a0 0d       	add	r26, r0
    3e02:	61 1d       	adc	r22, r1
    3e04:	23 1f       	adc	r18, r19
    3e06:	84 9f       	mul	r24, r20
    3e08:	60 0d       	add	r22, r0
    3e0a:	21 1d       	adc	r18, r1
    3e0c:	82 2f       	mov	r24, r18
    3e0e:	76 2f       	mov	r23, r22
    3e10:	6a 2f       	mov	r22, r26
    3e12:	11 24       	eor	r1, r1
    3e14:	9f 57       	subi	r25, 0x7F	; 127
    3e16:	50 40       	sbci	r21, 0x00	; 0
    3e18:	8a f0       	brmi	.+34     	; 0x3e3c <__mulsf3_pse+0x84>
    3e1a:	e1 f0       	breq	.+56     	; 0x3e54 <__mulsf3_pse+0x9c>
    3e1c:	88 23       	and	r24, r24
    3e1e:	4a f0       	brmi	.+18     	; 0x3e32 <__mulsf3_pse+0x7a>
    3e20:	ee 0f       	add	r30, r30
    3e22:	ff 1f       	adc	r31, r31
    3e24:	bb 1f       	adc	r27, r27
    3e26:	66 1f       	adc	r22, r22
    3e28:	77 1f       	adc	r23, r23
    3e2a:	88 1f       	adc	r24, r24
    3e2c:	91 50       	subi	r25, 0x01	; 1
    3e2e:	50 40       	sbci	r21, 0x00	; 0
    3e30:	a9 f7       	brne	.-22     	; 0x3e1c <__mulsf3_pse+0x64>
    3e32:	9e 3f       	cpi	r25, 0xFE	; 254
    3e34:	51 05       	cpc	r21, r1
    3e36:	70 f0       	brcs	.+28     	; 0x3e54 <__mulsf3_pse+0x9c>
    3e38:	60 cf       	rjmp	.-320    	; 0x3cfa <__fp_inf>
    3e3a:	aa cf       	rjmp	.-172    	; 0x3d90 <__fp_szero>
    3e3c:	5f 3f       	cpi	r21, 0xFF	; 255
    3e3e:	ec f3       	brlt	.-6      	; 0x3e3a <__mulsf3_pse+0x82>
    3e40:	98 3e       	cpi	r25, 0xE8	; 232
    3e42:	dc f3       	brlt	.-10     	; 0x3e3a <__mulsf3_pse+0x82>
    3e44:	86 95       	lsr	r24
    3e46:	77 95       	ror	r23
    3e48:	67 95       	ror	r22
    3e4a:	b7 95       	ror	r27
    3e4c:	f7 95       	ror	r31
    3e4e:	e7 95       	ror	r30
    3e50:	9f 5f       	subi	r25, 0xFF	; 255
    3e52:	c1 f7       	brne	.-16     	; 0x3e44 <__mulsf3_pse+0x8c>
    3e54:	fe 2b       	or	r31, r30
    3e56:	88 0f       	add	r24, r24
    3e58:	91 1d       	adc	r25, r1
    3e5a:	96 95       	lsr	r25
    3e5c:	87 95       	ror	r24
    3e5e:	97 f9       	bld	r25, 7
    3e60:	08 95       	ret

00003e62 <__itoa_ncheck>:
    3e62:	bb 27       	eor	r27, r27
    3e64:	4a 30       	cpi	r20, 0x0A	; 10
    3e66:	31 f4       	brne	.+12     	; 0x3e74 <__itoa_ncheck+0x12>
    3e68:	99 23       	and	r25, r25
    3e6a:	22 f4       	brpl	.+8      	; 0x3e74 <__itoa_ncheck+0x12>
    3e6c:	bd e2       	ldi	r27, 0x2D	; 45
    3e6e:	90 95       	com	r25
    3e70:	81 95       	neg	r24
    3e72:	9f 4f       	sbci	r25, 0xFF	; 255
    3e74:	0c 94 3d 1f 	jmp	0x3e7a	; 0x3e7a <__utoa_common>

00003e78 <__utoa_ncheck>:
    3e78:	bb 27       	eor	r27, r27

00003e7a <__utoa_common>:
    3e7a:	fb 01       	movw	r30, r22
    3e7c:	55 27       	eor	r21, r21
    3e7e:	aa 27       	eor	r26, r26
    3e80:	88 0f       	add	r24, r24
    3e82:	99 1f       	adc	r25, r25
    3e84:	aa 1f       	adc	r26, r26
    3e86:	a4 17       	cp	r26, r20
    3e88:	10 f0       	brcs	.+4      	; 0x3e8e <__utoa_common+0x14>
    3e8a:	a4 1b       	sub	r26, r20
    3e8c:	83 95       	inc	r24
    3e8e:	50 51       	subi	r21, 0x10	; 16
    3e90:	b9 f7       	brne	.-18     	; 0x3e80 <__utoa_common+0x6>
    3e92:	a0 5d       	subi	r26, 0xD0	; 208
    3e94:	aa 33       	cpi	r26, 0x3A	; 58
    3e96:	08 f0       	brcs	.+2      	; 0x3e9a <__utoa_common+0x20>
    3e98:	a9 5d       	subi	r26, 0xD9	; 217
    3e9a:	a1 93       	st	Z+, r26
    3e9c:	00 97       	sbiw	r24, 0x00	; 0
    3e9e:	79 f7       	brne	.-34     	; 0x3e7e <__utoa_common+0x4>
    3ea0:	b1 11       	cpse	r27, r1
    3ea2:	b1 93       	st	Z+, r27
    3ea4:	11 92       	st	Z+, r1
    3ea6:	cb 01       	movw	r24, r22
    3ea8:	0c 94 56 1f 	jmp	0x3eac	; 0x3eac <strrev>

00003eac <strrev>:
    3eac:	dc 01       	movw	r26, r24
    3eae:	fc 01       	movw	r30, r24
    3eb0:	67 2f       	mov	r22, r23
    3eb2:	71 91       	ld	r23, Z+
    3eb4:	77 23       	and	r23, r23
    3eb6:	e1 f7       	brne	.-8      	; 0x3eb0 <strrev+0x4>
    3eb8:	32 97       	sbiw	r30, 0x02	; 2
    3eba:	04 c0       	rjmp	.+8      	; 0x3ec4 <strrev+0x18>
    3ebc:	7c 91       	ld	r23, X
    3ebe:	6d 93       	st	X+, r22
    3ec0:	70 83       	st	Z, r23
    3ec2:	62 91       	ld	r22, -Z
    3ec4:	ae 17       	cp	r26, r30
    3ec6:	bf 07       	cpc	r27, r31
    3ec8:	c8 f3       	brcs	.-14     	; 0x3ebc <strrev+0x10>
    3eca:	08 95       	ret

00003ecc <_exit>:
    3ecc:	f8 94       	cli

00003ece <__stop_program>:
    3ece:	ff cf       	rjmp	.-2      	; 0x3ece <__stop_program>
